ARM GAS  C:\Users\Riccardo\AppData\Local\Temp\ccuNmjEK.s 			page 1


   1              		.syntax unified
   2              		.cpu cortex-m3
   3              		.fpu softvfp
   4              		.eabi_attribute 20, 1
   5              		.eabi_attribute 21, 1
   6              		.eabi_attribute 23, 3
   7              		.eabi_attribute 24, 1
   8              		.eabi_attribute 25, 1
   9              		.eabi_attribute 26, 1
  10              		.eabi_attribute 30, 1
  11              		.eabi_attribute 34, 1
  12              		.eabi_attribute 18, 4
  13              		.thumb
  14              		.syntax unified
  15              		.file	"Initialization.c"
  16              		.text
  17              	.Ltext0:
  18              		.cfi_sections	.debug_frame
  19              		.section	.text.INIT_ON,"ax",%progbits
  20              		.align	2
  21              		.global	INIT_ON
  22              		.thumb
  23              		.thumb_func
  24              		.type	INIT_ON, %function
  25              	INIT_ON:
  26              	.LFB63:
  27              		.file 1 "Initialization.c"
   1:Initialization.c **** /* ========================================
   2:Initialization.c ****  *
   3:Initialization.c ****  * Copyright YOUR COMPANY, THE YEAR
   4:Initialization.c ****  * All Rights Reserved
   5:Initialization.c ****  * UNPUBLISHED, LICENSED SOFTWARE.
   6:Initialization.c ****  *
   7:Initialization.c ****  * CONFIDENTIAL AND PROPRIETARY INFORMATION
   8:Initialization.c ****  * WHICH IS THE PROPERTY OF your company.
   9:Initialization.c ****  *
  10:Initialization.c ****  * ========================================
  11:Initialization.c **** */
  12:Initialization.c **** 
  13:Initialization.c **** /*********************   INTIALIZATION PERIPHERALS FILE   *************************/
  14:Initialization.c **** 
  15:Initialization.c **** 
  16:Initialization.c **** #include "Initialization.h"
  17:Initialization.c **** ErrorCode error;
  18:Initialization.c **** uint8_t fifo_ctrl_reg;
  19:Initialization.c **** 
  20:Initialization.c **** 
  21:Initialization.c **** 
  22:Initialization.c **** // Initialize peripherals for ON MODE 
  23:Initialization.c ****  void INIT_ON(void){
  28              		.loc 1 23 0
  29              		.cfi_startproc
  30              		@ args = 0, pretend = 0, frame = 0
  31              		@ frame_needed = 0, uses_anonymous_args = 0
  32 0000 08B5     		push	{r3, lr}
  33              		.cfi_def_cfa_offset 8
  34              		.cfi_offset 3, -8
ARM GAS  C:\Users\Riccardo\AppData\Local\Temp\ccuNmjEK.s 			page 2


  35              		.cfi_offset 14, -4
  24:Initialization.c ****     
  25:Initialization.c ****     I2C_Peripheral_Start();
  36              		.loc 1 25 0
  37 0002 FFF7FEFF 		bl	I2C_Peripheral_Start
  38              	.LVL0:
  26:Initialization.c ****                     
  27:Initialization.c **** 
  28:Initialization.c ****     fifo_ctrl_reg = STREAM_MODE_THR_WMK;
  39              		.loc 1 28 0
  40 0006 8622     		movs	r2, #134
  41 0008 0A4B     		ldr	r3, .L3
  42 000a 1A70     		strb	r2, [r3]
  29:Initialization.c ****     error = I2C_Peripheral_WriteRegister(LIS3DH_DEVICE_ADDRESS,
  43              		.loc 1 29 0
  44 000c 2E21     		movs	r1, #46
  45 000e 1820     		movs	r0, #24
  46 0010 FFF7FEFF 		bl	I2C_Peripheral_WriteRegister
  47              	.LVL1:
  48 0014 084B     		ldr	r3, .L3+4
  49 0016 1870     		strb	r0, [r3]
  30:Initialization.c ****                                              LIS3DH_FIFO_CTRL_REG,
  31:Initialization.c ****                                              fifo_ctrl_reg);
  32:Initialization.c ****     ADC_DelSig_Stop();
  50              		.loc 1 32 0
  51 0018 FFF7FEFF 		bl	ADC_DelSig_Stop
  52              	.LVL2:
  33:Initialization.c ****     INT_Led_Write(1);  
  53              		.loc 1 33 0
  54 001c 0120     		movs	r0, #1
  55 001e FFF7FEFF 		bl	INT_Led_Write
  56              	.LVL3:
  34:Initialization.c **** 
  35:Initialization.c ****     isr_LIS3DH_StartEx(ISR_LIS3DH_FIFO_WATERMARK);
  57              		.loc 1 35 0
  58 0022 0648     		ldr	r0, .L3+8
  59 0024 FFF7FEFF 		bl	isr_LIS3DH_StartEx
  60              	.LVL4:
  36:Initialization.c ****     SPIM_1_Start();
  61              		.loc 1 36 0
  62 0028 FFF7FEFF 		bl	SPIM_1_Start
  63              	.LVL5:
  37:Initialization.c ****     CyDelay(10);
  64              		.loc 1 37 0
  65 002c 0A20     		movs	r0, #10
  66 002e FFF7FEFF 		bl	CyDelay
  67              	.LVL6:
  68 0032 08BD     		pop	{r3, pc}
  69              	.L4:
  70              		.align	2
  71              	.L3:
  72 0034 00000000 		.word	fifo_ctrl_reg
  73 0038 00000000 		.word	error
  74 003c 00000000 		.word	ISR_LIS3DH_FIFO_WATERMARK
  75              		.cfi_endproc
  76              	.LFE63:
  77              		.size	INIT_ON, .-INIT_ON
ARM GAS  C:\Users\Riccardo\AppData\Local\Temp\ccuNmjEK.s 			page 3


  78              		.section	.text.INIT_OFF,"ax",%progbits
  79              		.align	2
  80              		.global	INIT_OFF
  81              		.thumb
  82              		.thumb_func
  83              		.type	INIT_OFF, %function
  84              	INIT_OFF:
  85              	.LFB64:
  38:Initialization.c **** }
  39:Initialization.c **** 
  40:Initialization.c **** 
  41:Initialization.c **** // Initialize peripherals for OFF MODE 
  42:Initialization.c **** void INIT_OFF(void){
  86              		.loc 1 42 0
  87              		.cfi_startproc
  88              		@ args = 0, pretend = 0, frame = 0
  89              		@ frame_needed = 0, uses_anonymous_args = 0
  90 0000 10B5     		push	{r4, lr}
  91              		.cfi_def_cfa_offset 8
  92              		.cfi_offset 4, -8
  93              		.cfi_offset 14, -4
  43:Initialization.c ****     I2C_Peripheral_Start();
  94              		.loc 1 43 0
  95 0002 FFF7FEFF 		bl	I2C_Peripheral_Start
  96              	.LVL7:
  44:Initialization.c ****     fifo_ctrl_reg = BYPASS_MODE;
  97              		.loc 1 44 0
  98 0006 0024     		movs	r4, #0
  99 0008 0E4B     		ldr	r3, .L7
 100 000a 1C70     		strb	r4, [r3]
  45:Initialization.c ****     error = I2C_Peripheral_WriteRegister(LIS3DH_DEVICE_ADDRESS,
 101              		.loc 1 45 0
 102 000c 2246     		mov	r2, r4
 103 000e 2E21     		movs	r1, #46
 104 0010 1820     		movs	r0, #24
 105 0012 FFF7FEFF 		bl	I2C_Peripheral_WriteRegister
 106              	.LVL8:
 107 0016 0C4B     		ldr	r3, .L7+4
 108 0018 1870     		strb	r0, [r3]
  46:Initialization.c ****                                                  LIS3DH_FIFO_CTRL_REG,
  47:Initialization.c ****                                                  fifo_ctrl_reg);
  48:Initialization.c **** 
  49:Initialization.c ****     isr_LIS3DH_Stop();
 109              		.loc 1 49 0
 110 001a FFF7FEFF 		bl	isr_LIS3DH_Stop
 111              	.LVL9:
  50:Initialization.c ****     I2C_Peripheral_Stop();
 112              		.loc 1 50 0
 113 001e FFF7FEFF 		bl	I2C_Peripheral_Stop
 114              	.LVL10:
  51:Initialization.c ****     SPIM_1_Stop();
 115              		.loc 1 51 0
 116 0022 FFF7FEFF 		bl	SPIM_1_Stop
 117              	.LVL11:
  52:Initialization.c ****     ADC_DelSig_Stop();         
 118              		.loc 1 52 0
 119 0026 FFF7FEFF 		bl	ADC_DelSig_Stop
ARM GAS  C:\Users\Riccardo\AppData\Local\Temp\ccuNmjEK.s 			page 4


 120              	.LVL12:
  53:Initialization.c ****     RED_Led_Write(1);
 121              		.loc 1 53 0
 122 002a 0120     		movs	r0, #1
 123 002c FFF7FEFF 		bl	RED_Led_Write
 124              	.LVL13:
  54:Initialization.c ****     GREEN_Led_Write(1);
 125              		.loc 1 54 0
 126 0030 0120     		movs	r0, #1
 127 0032 FFF7FEFF 		bl	GREEN_Led_Write
 128              	.LVL14:
  55:Initialization.c ****     BLUE_Led_Write(1);
 129              		.loc 1 55 0
 130 0036 0120     		movs	r0, #1
 131 0038 FFF7FEFF 		bl	BLUE_Led_Write
 132              	.LVL15:
  56:Initialization.c ****     INT_Led_Write(0);
 133              		.loc 1 56 0
 134 003c 2046     		mov	r0, r4
 135 003e FFF7FEFF 		bl	INT_Led_Write
 136              	.LVL16:
 137 0042 10BD     		pop	{r4, pc}
 138              	.L8:
 139              		.align	2
 140              	.L7:
 141 0044 00000000 		.word	fifo_ctrl_reg
 142 0048 00000000 		.word	error
 143              		.cfi_endproc
 144              	.LFE64:
 145              		.size	INIT_OFF, .-INIT_OFF
 146              		.section	.text.INIT_CONF,"ax",%progbits
 147              		.align	2
 148              		.global	INIT_CONF
 149              		.thumb
 150              		.thumb_func
 151              		.type	INIT_CONF, %function
 152              	INIT_CONF:
 153              	.LFB65:
  57:Initialization.c ****                    
  58:Initialization.c **** 
  59:Initialization.c **** }
  60:Initialization.c ****     
  61:Initialization.c **** // Initialize peripherals for CONFIGURATION MODE     
  62:Initialization.c **** void INIT_CONF(void)
  63:Initialization.c **** {   RED_Led_Write(1);
 154              		.loc 1 63 0
 155              		.cfi_startproc
 156              		@ args = 0, pretend = 0, frame = 0
 157              		@ frame_needed = 0, uses_anonymous_args = 0
 158 0000 08B5     		push	{r3, lr}
 159              		.cfi_def_cfa_offset 8
 160              		.cfi_offset 3, -8
 161              		.cfi_offset 14, -4
 162              		.loc 1 63 0
 163 0002 0120     		movs	r0, #1
 164 0004 FFF7FEFF 		bl	RED_Led_Write
 165              	.LVL17:
ARM GAS  C:\Users\Riccardo\AppData\Local\Temp\ccuNmjEK.s 			page 5


  64:Initialization.c ****     GREEN_Led_Write(1);
 166              		.loc 1 64 0
 167 0008 0120     		movs	r0, #1
 168 000a FFF7FEFF 		bl	GREEN_Led_Write
 169              	.LVL18:
  65:Initialization.c ****     BLUE_Led_Write(1);
 170              		.loc 1 65 0
 171 000e 0120     		movs	r0, #1
 172 0010 FFF7FEFF 		bl	BLUE_Led_Write
 173              	.LVL19:
  66:Initialization.c **** 
  67:Initialization.c **** 
  68:Initialization.c ****     I2C_Peripheral_Start();
 174              		.loc 1 68 0
 175 0014 FFF7FEFF 		bl	I2C_Peripheral_Start
 176              	.LVL20:
  69:Initialization.c ****     fifo_ctrl_reg = BYPASS_MODE;
 177              		.loc 1 69 0
 178 0018 0022     		movs	r2, #0
 179 001a 084B     		ldr	r3, .L11
 180 001c 1A70     		strb	r2, [r3]
  70:Initialization.c ****     error = I2C_Peripheral_WriteRegister(LIS3DH_DEVICE_ADDRESS,
 181              		.loc 1 70 0
 182 001e 2E21     		movs	r1, #46
 183 0020 1820     		movs	r0, #24
 184 0022 FFF7FEFF 		bl	I2C_Peripheral_WriteRegister
 185              	.LVL21:
 186 0026 064B     		ldr	r3, .L11+4
 187 0028 1870     		strb	r0, [r3]
  71:Initialization.c ****                                                  LIS3DH_FIFO_CTRL_REG,
  72:Initialization.c ****                                                  fifo_ctrl_reg);
  73:Initialization.c ****     
  74:Initialization.c ****     isr_LIS3DH_Stop();
 188              		.loc 1 74 0
 189 002a FFF7FEFF 		bl	isr_LIS3DH_Stop
 190              	.LVL22:
  75:Initialization.c ****     SPIM_1_Stop();
 191              		.loc 1 75 0
 192 002e FFF7FEFF 		bl	SPIM_1_Stop
 193              	.LVL23:
  76:Initialization.c ****     ADC_DelSig_Start();
 194              		.loc 1 76 0
 195 0032 FFF7FEFF 		bl	ADC_DelSig_Start
 196              	.LVL24:
  77:Initialization.c ****     ADC_DelSig_StartConvert();
 197              		.loc 1 77 0
 198 0036 FFF7FEFF 		bl	ADC_DelSig_StartConvert
 199              	.LVL25:
 200 003a 08BD     		pop	{r3, pc}
 201              	.L12:
 202              		.align	2
 203              	.L11:
 204 003c 00000000 		.word	fifo_ctrl_reg
 205 0040 00000000 		.word	error
 206              		.cfi_endproc
 207              	.LFE65:
 208              		.size	INIT_CONF, .-INIT_CONF
ARM GAS  C:\Users\Riccardo\AppData\Local\Temp\ccuNmjEK.s 			page 6


 209              		.comm	fifo_ctrl_reg,1,1
 210              		.comm	error,1,1
 211              		.comm	timestamp,4,4
 212              		.comm	flag_eeprom,1,1
 213              		.comm	counter_int_led,2,2
 214              		.comm	counter_blue,2,2
 215              		.comm	counter_green,2,2
 216              		.comm	counter_red,2,2
 217              		.comm	period_int_led,1,1
 218              		.comm	period_blue,2,2
 219              		.comm	period_green,2,2
 220              		.comm	period_red,2,2
 221              		.comm	status,1,1
 222              		.comm	OVR_FLAG,1,1
 223              		.text
 224              	.Letext0:
 225              		.file 2 "c:\\program files (x86)\\cypress\\psoc creator\\4.3\\psoc creator\\import\\gnu\\arm\\5.4.
 226              		.file 3 "c:\\program files (x86)\\cypress\\psoc creator\\4.3\\psoc creator\\import\\gnu\\arm\\5.4.
 227              		.file 4 "ErrorCodes.h"
 228              		.file 5 "Generated_Source\\PSoC5/core_cm3.h"
 229              		.file 6 "Interrupt_Routines.h"
 230              		.file 7 "I2C_Interface.h"
 231              		.file 8 "Generated_Source\\PSoC5/ADC_DelSig.h"
 232              		.file 9 "Generated_Source\\PSoC5/INT_Led.h"
 233              		.file 10 "Generated_Source\\PSoC5/isr_LIS3DH.h"
 234              		.file 11 "Generated_Source\\PSoC5/SPIM_1.h"
 235              		.file 12 "Generated_Source\\PSoC5/CyLib.h"
 236              		.file 13 "Generated_Source\\PSoC5/RED_Led.h"
 237              		.file 14 "Generated_Source\\PSoC5/GREEN_Led.h"
 238              		.file 15 "Generated_Source\\PSoC5/BLUE_Led.h"