ARM GAS  C:\Users\Riccardo\AppData\Local\Temp\ccjNcLE2.s 			page 1


   1              		.syntax unified
   2              		.cpu cortex-m3
   3              		.fpu softvfp
   4              		.eabi_attribute 20, 1
   5              		.eabi_attribute 21, 1
   6              		.eabi_attribute 23, 3
   7              		.eabi_attribute 24, 1
   8              		.eabi_attribute 25, 1
   9              		.eabi_attribute 26, 1
  10              		.eabi_attribute 30, 1
  11              		.eabi_attribute 34, 1
  12              		.eabi_attribute 18, 4
  13              		.thumb
  14              		.syntax unified
  15              		.file	"Interrupt_Routines.c"
  16              		.text
  17              	.Ltext0:
  18              		.cfi_sections	.debug_frame
  19              		.section	.text.ISR_LIS3DH_FIFO_WATERMARK,"ax",%progbits
  20              		.align	2
  21              		.global	ISR_LIS3DH_FIFO_WATERMARK
  22              		.thumb
  23              		.thumb_func
  24              		.type	ISR_LIS3DH_FIFO_WATERMARK, %function
  25              	ISR_LIS3DH_FIFO_WATERMARK:
  26              	.LFB64:
  27              		.file 1 "Interrupt_Routines.c"
   1:Interrupt_Routines.c **** /* ========================================
   2:Interrupt_Routines.c ****  *
   3:Interrupt_Routines.c ****  * Copyright YOUR COMPANY, THE YEAR
   4:Interrupt_Routines.c ****  * All Rights Reserved
   5:Interrupt_Routines.c ****  * UNPUBLISHED, LICENSED SOFTWARE.
   6:Interrupt_Routines.c ****  *
   7:Interrupt_Routines.c ****  * CONFIDENTIAL AND PROPRIETARY INFORMATION
   8:Interrupt_Routines.c ****  * WHICH IS THE PROPERTY OF your company.
   9:Interrupt_Routines.c ****  *
  10:Interrupt_Routines.c ****  * ========================================
  11:Interrupt_Routines.c **** */
  12:Interrupt_Routines.c **** #include "project.h"
  13:Interrupt_Routines.c **** #include "Interrupt_Routines.h"
  14:Interrupt_Routines.c **** #include "stdio.h"
  15:Interrupt_Routines.c **** #include "ErrorCodes.h"
  16:Interrupt_Routines.c **** #include "I2C_Interface.h"
  17:Interrupt_Routines.c **** #include "LIS3DH_Registers.h"
  18:Interrupt_Routines.c **** #include "LIS3DH_Registers_Settings.h"
  19:Interrupt_Routines.c **** uint8_t error;
  20:Interrupt_Routines.c **** uint8_t watermark;
  21:Interrupt_Routines.c **** uint8_t int1_src_reg;
  22:Interrupt_Routines.c **** uint8_t prev_state=0;
  23:Interrupt_Routines.c **** volatile uint16_t counter_button=0;
  24:Interrupt_Routines.c **** 
  25:Interrupt_Routines.c **** uint16_t timer_counter=0;
  26:Interrupt_Routines.c **** 
  27:Interrupt_Routines.c **** 
  28:Interrupt_Routines.c **** /* Variable that contains the message for UART debug communication*/
  29:Interrupt_Routines.c **** char mex[50];
  30:Interrupt_Routines.c **** 
ARM GAS  C:\Users\Riccardo\AppData\Local\Temp\ccjNcLE2.s 			page 2


  31:Interrupt_Routines.c **** 
  32:Interrupt_Routines.c **** /* Custom Interrupt on FIFO watermark */
  33:Interrupt_Routines.c ****  CY_ISR(ISR_LIS3DH_FIFO_WATERMARK)
  34:Interrupt_Routines.c **** {/*error = I2C_Peripheral_ReadRegister(LIS3DH_DEVICE_ADDRESS,
  28              		.loc 1 34 0
  29              		.cfi_startproc
  30              		@ args = 0, pretend = 0, frame = 0
  31              		@ frame_needed = 0, uses_anonymous_args = 0
  32 0000 38B5     		push	{r3, r4, r5, lr}
  33              		.cfi_def_cfa_offset 16
  34              		.cfi_offset 3, -16
  35              		.cfi_offset 4, -12
  36              		.cfi_offset 5, -8
  37              		.cfi_offset 14, -4
  35:Interrupt_Routines.c ****                                         LIS3DH_CTRL_REG4,
  36:Interrupt_Routines.c ****                                         &watermark);
  37:Interrupt_Routines.c **** if((watermark & 0b10000000)==0b10000000)  OVR_FLAG=1;*/
  38:Interrupt_Routines.c **** error = I2C_Peripheral_ReadRegister(LIS3DH_DEVICE_ADDRESS,
  38              		.loc 1 38 0
  39 0002 114C     		ldr	r4, .L4
  40 0004 2246     		mov	r2, r4
  41 0006 3121     		movs	r1, #49
  42 0008 1820     		movs	r0, #24
  43 000a FFF7FEFF 		bl	I2C_Peripheral_ReadRegister
  44              	.LVL0:
  45 000e 0F4B     		ldr	r3, .L4+4
  46 0010 1870     		strb	r0, [r3]
  39:Interrupt_Routines.c ****                                      LIS3DH_INT1_SRC,
  40:Interrupt_Routines.c ****                                      &int1_src_reg);
  41:Interrupt_Routines.c **** if(int1_src_reg & 0x40) //read if 1 or more interrupts have been generated on INT1_SRC_REG
  47              		.loc 1 41 0
  48 0012 2378     		ldrb	r3, [r4]	@ zero_extendqisi2
  49 0014 13F0400F 		tst	r3, #64
  50 0018 12D0     		beq	.L2
  42:Interrupt_Routines.c **** {
  43:Interrupt_Routines.c ****     sprintf(mex, "Overthreshold event \r\n");
  51              		.loc 1 43 0
  52 001a 0D4D     		ldr	r5, .L4+8
  53 001c 0D4C     		ldr	r4, .L4+12
  54 001e 0FCC     		ldmia	r4!, {r0, r1, r2, r3}
  55 0020 2860     		str	r0, [r5]	@ unaligned
  56 0022 6960     		str	r1, [r5, #4]	@ unaligned
  57 0024 AA60     		str	r2, [r5, #8]	@ unaligned
  58 0026 EB60     		str	r3, [r5, #12]	@ unaligned
  59 0028 2068     		ldr	r0, [r4]	@ unaligned
  60 002a 2861     		str	r0, [r5, #16]	@ unaligned
  61 002c A288     		ldrh	r2, [r4, #4]	@ unaligned
  62 002e A379     		ldrb	r3, [r4, #6]	@ zero_extendqisi2
  63 0030 AA82     		strh	r2, [r5, #20]	@ unaligned
  64 0032 AB75     		strb	r3, [r5, #22]
  44:Interrupt_Routines.c ****     UART_Debug_PutString(mex);
  65              		.loc 1 44 0
  66 0034 2846     		mov	r0, r5
  67 0036 FFF7FEFF 		bl	UART_Debug_PutString
  68              	.LVL1:
  45:Interrupt_Routines.c ****     flag_eeprom=1;
  69              		.loc 1 45 0
ARM GAS  C:\Users\Riccardo\AppData\Local\Temp\ccjNcLE2.s 			page 3


  70 003a 0122     		movs	r2, #1
  71 003c 064B     		ldr	r3, .L4+16
  72 003e 1A70     		strb	r2, [r3]
  73              	.L2:
  46:Interrupt_Routines.c **** }
  47:Interrupt_Routines.c **** 
  48:Interrupt_Routines.c **** OVR_FLAG=1;
  74              		.loc 1 48 0
  75 0040 0122     		movs	r2, #1
  76 0042 064B     		ldr	r3, .L4+20
  77 0044 1A70     		strb	r2, [r3]
  78 0046 38BD     		pop	{r3, r4, r5, pc}
  79              	.L5:
  80              		.align	2
  81              	.L4:
  82 0048 00000000 		.word	int1_src_reg
  83 004c 00000000 		.word	error
  84 0050 00000000 		.word	mex
  85 0054 00000000 		.word	.LC0
  86 0058 00000000 		.word	flag_eeprom
  87 005c 00000000 		.word	OVR_FLAG
  88              		.cfi_endproc
  89              	.LFE64:
  90              		.size	ISR_LIS3DH_FIFO_WATERMARK, .-ISR_LIS3DH_FIFO_WATERMARK
  91              		.section	.text.ISR_TIMER,"ax",%progbits
  92              		.align	2
  93              		.global	ISR_TIMER
  94              		.thumb
  95              		.thumb_func
  96              		.type	ISR_TIMER, %function
  97              	ISR_TIMER:
  98              	.LFB65:
  49:Interrupt_Routines.c **** }
  50:Interrupt_Routines.c **** 
  51:Interrupt_Routines.c **** /* Custom Interrupt on Timer counter */
  52:Interrupt_Routines.c **** CY_ISR (ISR_TIMER)
  53:Interrupt_Routines.c **** {
  99              		.loc 1 53 0
 100              		.cfi_startproc
 101              		@ args = 0, pretend = 0, frame = 0
 102              		@ frame_needed = 0, uses_anonymous_args = 0
 103 0000 70B5     		push	{r4, r5, r6, lr}
 104              		.cfi_def_cfa_offset 16
 105              		.cfi_offset 4, -16
 106              		.cfi_offset 5, -12
 107              		.cfi_offset 6, -8
 108              		.cfi_offset 14, -4
  54:Interrupt_Routines.c ****     
  55:Interrupt_Routines.c ****     /* Read Timer Status Register to reset the counter */
  56:Interrupt_Routines.c ****     Timer_ReadStatusRegister();
 109              		.loc 1 56 0
 110 0002 FFF7FEFF 		bl	Timer_ReadStatusRegister
 111              	.LVL2:
  57:Interrupt_Routines.c ****     
  58:Interrupt_Routines.c ****     switch (status){
 112              		.loc 1 58 0
 113 0006 844B     		ldr	r3, .L28
ARM GAS  C:\Users\Riccardo\AppData\Local\Temp\ccjNcLE2.s 			page 4


 114 0008 1B78     		ldrb	r3, [r3]	@ zero_extendqisi2
 115 000a DBB2     		uxtb	r3, r3
 116 000c 012B     		cmp	r3, #1
 117 000e 4ED0     		beq	.L8
 118 0010 1BB1     		cbz	r3, .L9
 119 0012 022B     		cmp	r3, #2
 120 0014 00F01C81 		beq	.L10
 121 0018 70BD     		pop	{r4, r5, r6, pc}
 122              	.L9:
  59:Interrupt_Routines.c ****         case 0:
  60:Interrupt_Routines.c ****             if (counter_button!=0){
 123              		.loc 1 60 0
 124 001a 804B     		ldr	r3, .L28+4
 125 001c 1B88     		ldrh	r3, [r3]
 126 001e 9BB2     		uxth	r3, r3
 127 0020 002B     		cmp	r3, #0
 128 0022 00F06E81 		beq	.L6
  61:Interrupt_Routines.c ****                 timer_counter++;
 129              		.loc 1 61 0
 130 0026 7D4A     		ldr	r2, .L28+4
 131 0028 5388     		ldrh	r3, [r2, #2]
 132 002a 0133     		adds	r3, r3, #1
 133 002c 9BB2     		uxth	r3, r3
 134 002e 5380     		strh	r3, [r2, #2]	@ movhi
  62:Interrupt_Routines.c ****                 if (timer_counter>1000){
 135              		.loc 1 62 0
 136 0030 B3F57A7F 		cmp	r3, #1000
 137 0034 40F26581 		bls	.L6
  63:Interrupt_Routines.c ****             
  64:Interrupt_Routines.c ****                     
  65:Interrupt_Routines.c ****             
  66:Interrupt_Routines.c ****                     
  67:Interrupt_Routines.c ****                     timer_counter=0;
 138              		.loc 1 67 0
 139 0038 1346     		mov	r3, r2
 140 003a 0022     		movs	r2, #0
 141 003c 5A80     		strh	r2, [r3, #2]	@ movhi
  68:Interrupt_Routines.c ****                     
  69:Interrupt_Routines.c ****                     if (counter_button==2){
 142              		.loc 1 69 0
 143 003e 1B88     		ldrh	r3, [r3]
 144 0040 9BB2     		uxth	r3, r3
 145 0042 022B     		cmp	r3, #2
 146 0044 12D1     		bne	.L11
  70:Interrupt_Routines.c ****                         sprintf(mex, "Switch ON device \r\n");
 147              		.loc 1 70 0
 148 0046 764D     		ldr	r5, .L28+8
 149 0048 764C     		ldr	r4, .L28+12
 150 004a 0FCC     		ldmia	r4!, {r0, r1, r2, r3}
 151 004c 2860     		str	r0, [r5]	@ unaligned
 152 004e 6960     		str	r1, [r5, #4]	@ unaligned
 153 0050 AA60     		str	r2, [r5, #8]	@ unaligned
 154 0052 EB60     		str	r3, [r5, #12]	@ unaligned
 155 0054 2068     		ldr	r0, [r4]	@ unaligned
 156 0056 2861     		str	r0, [r5, #16]	@ unaligned
  71:Interrupt_Routines.c ****                         UART_Debug_PutString(mex);
 157              		.loc 1 71 0
ARM GAS  C:\Users\Riccardo\AppData\Local\Temp\ccjNcLE2.s 			page 5


 158 0058 2846     		mov	r0, r5
 159 005a FFF7FEFF 		bl	UART_Debug_PutString
 160              	.LVL3:
  72:Interrupt_Routines.c ****                         repetition=0;
 161              		.loc 1 72 0
 162 005e 0022     		movs	r2, #0
 163 0060 714B     		ldr	r3, .L28+16
 164 0062 1A70     		strb	r2, [r3]
  73:Interrupt_Routines.c ****                         status=1;
 165              		.loc 1 73 0
 166 0064 0122     		movs	r2, #1
 167 0066 6C4B     		ldr	r3, .L28
 168 0068 1A70     		strb	r2, [r3]
 169 006a 1CE0     		b	.L12
 170              	.L11:
  74:Interrupt_Routines.c ****                         
  75:Interrupt_Routines.c ****                     }
  76:Interrupt_Routines.c ****                     else if (counter_button>3){
 171              		.loc 1 76 0
 172 006c 6B4B     		ldr	r3, .L28+4
 173 006e 1B88     		ldrh	r3, [r3]
 174 0070 9BB2     		uxth	r3, r3
 175 0072 032B     		cmp	r3, #3
 176 0074 17D9     		bls	.L12
  77:Interrupt_Routines.c ****                         prev_state=status;
 177              		.loc 1 77 0
 178 0076 684E     		ldr	r6, .L28
 179 0078 3278     		ldrb	r2, [r6]	@ zero_extendqisi2
 180 007a 684B     		ldr	r3, .L28+4
 181 007c 1A71     		strb	r2, [r3, #4]
  78:Interrupt_Routines.c ****                         sprintf(mex, "Switch to Configuration Mode \r\n");
 182              		.loc 1 78 0
 183 007e 684D     		ldr	r5, .L28+8
 184 0080 6A4C     		ldr	r4, .L28+20
 185 0082 0FCC     		ldmia	r4!, {r0, r1, r2, r3}
 186 0084 2860     		str	r0, [r5]	@ unaligned
 187 0086 6960     		str	r1, [r5, #4]	@ unaligned
 188 0088 AA60     		str	r2, [r5, #8]	@ unaligned
 189 008a EB60     		str	r3, [r5, #12]	@ unaligned
 190 008c 0FCC     		ldmia	r4!, {r0, r1, r2, r3}
 191 008e 2861     		str	r0, [r5, #16]	@ unaligned
 192 0090 6961     		str	r1, [r5, #20]	@ unaligned
 193 0092 AA61     		str	r2, [r5, #24]	@ unaligned
 194 0094 EB61     		str	r3, [r5, #28]	@ unaligned
  79:Interrupt_Routines.c ****                         UART_Debug_PutString(mex);
 195              		.loc 1 79 0
 196 0096 2846     		mov	r0, r5
 197 0098 FFF7FEFF 		bl	UART_Debug_PutString
 198              	.LVL4:
  80:Interrupt_Routines.c ****                         repetition=0;
 199              		.loc 1 80 0
 200 009c 0022     		movs	r2, #0
 201 009e 624B     		ldr	r3, .L28+16
 202 00a0 1A70     		strb	r2, [r3]
  81:Interrupt_Routines.c ****                         status=2;
 203              		.loc 1 81 0
 204 00a2 0223     		movs	r3, #2
ARM GAS  C:\Users\Riccardo\AppData\Local\Temp\ccjNcLE2.s 			page 6


 205 00a4 3370     		strb	r3, [r6]
 206              	.L12:
  82:Interrupt_Routines.c ****                         
  83:Interrupt_Routines.c ****                     }
  84:Interrupt_Routines.c ****                     
  85:Interrupt_Routines.c ****                     counter_button=0;
 207              		.loc 1 85 0
 208 00a6 0022     		movs	r2, #0
 209 00a8 5C4B     		ldr	r3, .L28+4
 210 00aa 1A80     		strh	r2, [r3]	@ movhi
 211 00ac 70BD     		pop	{r4, r5, r6, pc}
 212              	.L8:
  86:Interrupt_Routines.c ****                 }
  87:Interrupt_Routines.c ****             }
  88:Interrupt_Routines.c ****         break;
  89:Interrupt_Routines.c ****         
  90:Interrupt_Routines.c ****         case 1:
  91:Interrupt_Routines.c ****             
  92:Interrupt_Routines.c ****             /* Decrement the counter variable when Interrupt occurs */
  93:Interrupt_Routines.c ****                 counter_blue--;
 213              		.loc 1 93 0
 214 00ae 604A     		ldr	r2, .L28+24
 215 00b0 1388     		ldrh	r3, [r2]
 216 00b2 9BB2     		uxth	r3, r3
 217 00b4 013B     		subs	r3, r3, #1
 218 00b6 9BB2     		uxth	r3, r3
 219 00b8 1380     		strh	r3, [r2]	@ movhi
  94:Interrupt_Routines.c ****                 counter_green--;
 220              		.loc 1 94 0
 221 00ba 5E49     		ldr	r1, .L28+28
 222 00bc 0B88     		ldrh	r3, [r1]
 223 00be 9BB2     		uxth	r3, r3
 224 00c0 013B     		subs	r3, r3, #1
 225 00c2 9BB2     		uxth	r3, r3
 226 00c4 0B80     		strh	r3, [r1]	@ movhi
  95:Interrupt_Routines.c ****                 counter_red--;
 227              		.loc 1 95 0
 228 00c6 5C49     		ldr	r1, .L28+32
 229 00c8 0B88     		ldrh	r3, [r1]
 230 00ca 9BB2     		uxth	r3, r3
 231 00cc 013B     		subs	r3, r3, #1
 232 00ce 9BB2     		uxth	r3, r3
 233 00d0 0B80     		strh	r3, [r1]	@ movhi
  96:Interrupt_Routines.c ****     
  97:Interrupt_Routines.c ****                 /********************* BLUE LED ******************/
  98:Interrupt_Routines.c ****                 /* If the counter variable goes to 0, the Blue channel must be toggled*/
  99:Interrupt_Routines.c ****                 if (counter_blue==0)
 234              		.loc 1 99 0
 235 00d2 1388     		ldrh	r3, [r2]
 236 00d4 9BB2     		uxth	r3, r3
 237 00d6 83B9     		cbnz	r3, .L13
 100:Interrupt_Routines.c ****                     {
 101:Interrupt_Routines.c ****                         /* Toggle the Led only if the period set is lower than the THR_OFF */
 102:Interrupt_Routines.c ****                         if (period_blue<=THR_OFF) BLUE_Led_Write(~BLUE_Led_Read());
 238              		.loc 1 102 0
 239 00d8 584B     		ldr	r3, .L28+36
 240 00da 1B88     		ldrh	r3, [r3]
ARM GAS  C:\Users\Riccardo\AppData\Local\Temp\ccjNcLE2.s 			page 7


 241 00dc 9BB2     		uxth	r3, r3
 242 00de B3F5B67F 		cmp	r3, #364
 243 00e2 05D2     		bcs	.L14
 244              		.loc 1 102 0 is_stmt 0 discriminator 1
 245 00e4 FFF7FEFF 		bl	BLUE_Led_Read
 246              	.LVL5:
 247 00e8 C043     		mvns	r0, r0
 248 00ea C0B2     		uxtb	r0, r0
 249 00ec FFF7FEFF 		bl	BLUE_Led_Write
 250              	.LVL6:
 251              	.L14:
 103:Interrupt_Routines.c ****                         /* Reset the counter to the period value */
 104:Interrupt_Routines.c ****                         counter_blue = period_blue;
 252              		.loc 1 104 0 is_stmt 1
 253 00f0 524B     		ldr	r3, .L28+36
 254 00f2 1B88     		ldrh	r3, [r3]
 255 00f4 9BB2     		uxth	r3, r3
 256 00f6 4E4A     		ldr	r2, .L28+24
 257 00f8 1380     		strh	r3, [r2]	@ movhi
 258              	.L13:
 105:Interrupt_Routines.c ****                     }
 106:Interrupt_Routines.c ****     
 107:Interrupt_Routines.c ****                 /* In case the period is set more than THR_OFF, turn off the Led */
 108:Interrupt_Routines.c ****                 if (period_blue>THR_OFF)
 259              		.loc 1 108 0
 260 00fa 504B     		ldr	r3, .L28+36
 261 00fc 1B88     		ldrh	r3, [r3]
 262 00fe 9BB2     		uxth	r3, r3
 263 0100 B3F5B67F 		cmp	r3, #364
 264 0104 02D3     		bcc	.L15
 109:Interrupt_Routines.c ****                     {
 110:Interrupt_Routines.c ****                         BLUE_Led_Write(1);
 265              		.loc 1 110 0
 266 0106 0120     		movs	r0, #1
 267 0108 FFF7FEFF 		bl	BLUE_Led_Write
 268              	.LVL7:
 269              	.L15:
 111:Interrupt_Routines.c ****                     }
 112:Interrupt_Routines.c ****      
 113:Interrupt_Routines.c ****     
 114:Interrupt_Routines.c ****                 /******************** GREEN LED *******************/
 115:Interrupt_Routines.c ****                 /* If the counter variable goes to 0, the Green channel must be toggled*/
 116:Interrupt_Routines.c ****                 if (counter_green==0)
 270              		.loc 1 116 0
 271 010c 494B     		ldr	r3, .L28+28
 272 010e 1B88     		ldrh	r3, [r3]
 273 0110 9BB2     		uxth	r3, r3
 274 0112 83B9     		cbnz	r3, .L16
 117:Interrupt_Routines.c ****                 {
 118:Interrupt_Routines.c ****                     /* Toggle the Led only if the period set is lower than the THR_OFF */
 119:Interrupt_Routines.c ****                     if (period_green<=THR_OFF) GREEN_Led_Write(~GREEN_Led_Read());
 275              		.loc 1 119 0
 276 0114 4A4B     		ldr	r3, .L28+40
 277 0116 1B88     		ldrh	r3, [r3]
 278 0118 9BB2     		uxth	r3, r3
 279 011a B3F5B67F 		cmp	r3, #364
 280 011e 05D2     		bcs	.L17
ARM GAS  C:\Users\Riccardo\AppData\Local\Temp\ccjNcLE2.s 			page 8


 281              		.loc 1 119 0 is_stmt 0 discriminator 1
 282 0120 FFF7FEFF 		bl	GREEN_Led_Read
 283              	.LVL8:
 284 0124 C043     		mvns	r0, r0
 285 0126 C0B2     		uxtb	r0, r0
 286 0128 FFF7FEFF 		bl	GREEN_Led_Write
 287              	.LVL9:
 288              	.L17:
 120:Interrupt_Routines.c ****                     /* Reset the counter to the period value */
 121:Interrupt_Routines.c ****                     counter_green = period_green;
 289              		.loc 1 121 0 is_stmt 1
 290 012c 444B     		ldr	r3, .L28+40
 291 012e 1B88     		ldrh	r3, [r3]
 292 0130 9BB2     		uxth	r3, r3
 293 0132 404A     		ldr	r2, .L28+28
 294 0134 1380     		strh	r3, [r2]	@ movhi
 295              	.L16:
 122:Interrupt_Routines.c ****                 }
 123:Interrupt_Routines.c ****                 /* In case the period is set more than THR_OFF, turn off the Led */
 124:Interrupt_Routines.c ****                 if (period_green>THR_OFF)
 296              		.loc 1 124 0
 297 0136 424B     		ldr	r3, .L28+40
 298 0138 1B88     		ldrh	r3, [r3]
 299 013a 9BB2     		uxth	r3, r3
 300 013c B3F5B67F 		cmp	r3, #364
 301 0140 02D3     		bcc	.L18
 125:Interrupt_Routines.c ****                 {
 126:Interrupt_Routines.c ****                     GREEN_Led_Write(1);
 302              		.loc 1 126 0
 303 0142 0120     		movs	r0, #1
 304 0144 FFF7FEFF 		bl	GREEN_Led_Write
 305              	.LVL10:
 306              	.L18:
 127:Interrupt_Routines.c ****                 }
 128:Interrupt_Routines.c ****                 
 129:Interrupt_Routines.c ****                 
 130:Interrupt_Routines.c ****                 /******************* RED LED **********************/
 131:Interrupt_Routines.c ****                 /* If the counter variable goes to 0, the Red channel must be toggled*/
 132:Interrupt_Routines.c ****                 if (counter_red==0 )
 307              		.loc 1 132 0
 308 0148 3B4B     		ldr	r3, .L28+32
 309 014a 1B88     		ldrh	r3, [r3]
 310 014c 9BB2     		uxth	r3, r3
 311 014e 83B9     		cbnz	r3, .L19
 133:Interrupt_Routines.c ****                 {
 134:Interrupt_Routines.c ****                     /* Toggle the Led only if the period set is lower than the THR_OFF */
 135:Interrupt_Routines.c ****                     if (period_red<=THR_OFF) RED_Led_Write(~RED_Led_Read());
 312              		.loc 1 135 0
 313 0150 3C4B     		ldr	r3, .L28+44
 314 0152 1B88     		ldrh	r3, [r3]
 315 0154 9BB2     		uxth	r3, r3
 316 0156 B3F5B67F 		cmp	r3, #364
 317 015a 05D2     		bcs	.L20
 318              		.loc 1 135 0 is_stmt 0 discriminator 1
 319 015c FFF7FEFF 		bl	RED_Led_Read
 320              	.LVL11:
 321 0160 C043     		mvns	r0, r0
ARM GAS  C:\Users\Riccardo\AppData\Local\Temp\ccjNcLE2.s 			page 9


 322 0162 C0B2     		uxtb	r0, r0
 323 0164 FFF7FEFF 		bl	RED_Led_Write
 324              	.LVL12:
 325              	.L20:
 136:Interrupt_Routines.c ****                     /* Reset the counter to the period value */
 137:Interrupt_Routines.c ****                     counter_red = period_red;
 326              		.loc 1 137 0 is_stmt 1
 327 0168 364B     		ldr	r3, .L28+44
 328 016a 1B88     		ldrh	r3, [r3]
 329 016c 9BB2     		uxth	r3, r3
 330 016e 324A     		ldr	r2, .L28+32
 331 0170 1380     		strh	r3, [r2]	@ movhi
 332              	.L19:
 138:Interrupt_Routines.c ****                 }
 139:Interrupt_Routines.c ****                 /* In case the period is set more than THR_OFF, turn off the Led */
 140:Interrupt_Routines.c ****                 if (period_red>THR_OFF)
 333              		.loc 1 140 0
 334 0172 344B     		ldr	r3, .L28+44
 335 0174 1B88     		ldrh	r3, [r3]
 336 0176 9BB2     		uxth	r3, r3
 337 0178 B3F5B67F 		cmp	r3, #364
 338 017c 02D3     		bcc	.L21
 141:Interrupt_Routines.c ****                 {
 142:Interrupt_Routines.c ****                     RED_Led_Write(1);
 339              		.loc 1 142 0
 340 017e 0120     		movs	r0, #1
 341 0180 FFF7FEFF 		bl	RED_Led_Write
 342              	.LVL13:
 343              	.L21:
 143:Interrupt_Routines.c ****                 }
 144:Interrupt_Routines.c ****                 
 145:Interrupt_Routines.c ****                 /******************* TIMESTAMP ********************/
 146:Interrupt_Routines.c ****                 
 147:Interrupt_Routines.c ****                 timestamp++;
 344              		.loc 1 147 0
 345 0184 304A     		ldr	r2, .L28+48
 346 0186 1368     		ldr	r3, [r2]
 347 0188 0133     		adds	r3, r3, #1
 348 018a 1360     		str	r3, [r2]
 148:Interrupt_Routines.c ****                 if (counter_button!=0){
 349              		.loc 1 148 0
 350 018c 234B     		ldr	r3, .L28+4
 351 018e 1B88     		ldrh	r3, [r3]
 352 0190 9BB2     		uxth	r3, r3
 353 0192 002B     		cmp	r3, #0
 354 0194 00F0B580 		beq	.L6
 149:Interrupt_Routines.c ****                     timer_counter++;
 355              		.loc 1 149 0
 356 0198 204A     		ldr	r2, .L28+4
 357 019a 5388     		ldrh	r3, [r2, #2]
 358 019c 0133     		adds	r3, r3, #1
 359 019e 9BB2     		uxth	r3, r3
 360 01a0 5380     		strh	r3, [r2, #2]	@ movhi
 150:Interrupt_Routines.c ****                     if (timer_counter>1000){
 361              		.loc 1 150 0
 362 01a2 B3F57A7F 		cmp	r3, #1000
 363 01a6 40F2AC80 		bls	.L6
ARM GAS  C:\Users\Riccardo\AppData\Local\Temp\ccjNcLE2.s 			page 10


 151:Interrupt_Routines.c ****                         
 152:Interrupt_Routines.c **** 
 153:Interrupt_Routines.c ****                         if (counter_button>3){
 364              		.loc 1 153 0
 365 01aa 1388     		ldrh	r3, [r2]
 366 01ac 9BB2     		uxth	r3, r3
 367 01ae 032B     		cmp	r3, #3
 368 01b0 18D9     		bls	.L22
 154:Interrupt_Routines.c ****                             prev_state=status;
 369              		.loc 1 154 0
 370 01b2 194E     		ldr	r6, .L28
 371 01b4 3278     		ldrb	r2, [r6]	@ zero_extendqisi2
 372 01b6 194B     		ldr	r3, .L28+4
 373 01b8 1A71     		strb	r2, [r3, #4]
 155:Interrupt_Routines.c ****                             sprintf(mex, "Switch to Configuration Mode \r\n");
 374              		.loc 1 155 0
 375 01ba 194D     		ldr	r5, .L28+8
 376 01bc 1B4C     		ldr	r4, .L28+20
 377 01be 0FCC     		ldmia	r4!, {r0, r1, r2, r3}
 378 01c0 2860     		str	r0, [r5]	@ unaligned
 379 01c2 6960     		str	r1, [r5, #4]	@ unaligned
 380 01c4 AA60     		str	r2, [r5, #8]	@ unaligned
 381 01c6 EB60     		str	r3, [r5, #12]	@ unaligned
 382 01c8 0FCC     		ldmia	r4!, {r0, r1, r2, r3}
 383 01ca 2861     		str	r0, [r5, #16]	@ unaligned
 384 01cc 6961     		str	r1, [r5, #20]	@ unaligned
 385 01ce AA61     		str	r2, [r5, #24]	@ unaligned
 386 01d0 EB61     		str	r3, [r5, #28]	@ unaligned
 156:Interrupt_Routines.c ****                             UART_Debug_PutString(mex);
 387              		.loc 1 156 0
 388 01d2 2846     		mov	r0, r5
 389 01d4 FFF7FEFF 		bl	UART_Debug_PutString
 390              	.LVL14:
 157:Interrupt_Routines.c ****                             repetition=0;
 391              		.loc 1 157 0
 392 01d8 0022     		movs	r2, #0
 393 01da 134B     		ldr	r3, .L28+16
 394 01dc 1A70     		strb	r2, [r3]
 158:Interrupt_Routines.c ****                             status=2;
 395              		.loc 1 158 0
 396 01de 0223     		movs	r3, #2
 397 01e0 3370     		strb	r3, [r6]
 398 01e2 14E0     		b	.L23
 399              	.L22:
 159:Interrupt_Routines.c ****                             
 160:Interrupt_Routines.c ****                         
 161:Interrupt_Routines.c ****                         }
 162:Interrupt_Routines.c ****                         else if (counter_button==2){
 400              		.loc 1 162 0
 401 01e4 0D4B     		ldr	r3, .L28+4
 402 01e6 1B88     		ldrh	r3, [r3]
 403 01e8 9BB2     		uxth	r3, r3
 404 01ea 022B     		cmp	r3, #2
 405 01ec 0FD1     		bne	.L23
 163:Interrupt_Routines.c ****                             sprintf(mex, "Switch OFF \r\n");
 406              		.loc 1 163 0
 407 01ee 0C4C     		ldr	r4, .L28+8
ARM GAS  C:\Users\Riccardo\AppData\Local\Temp\ccjNcLE2.s 			page 11


 408 01f0 164B     		ldr	r3, .L28+52
 409 01f2 07CB     		ldmia	r3!, {r0, r1, r2}
 410 01f4 2060     		str	r0, [r4]	@ unaligned
 411 01f6 6160     		str	r1, [r4, #4]	@ unaligned
 412 01f8 A260     		str	r2, [r4, #8]	@ unaligned
 413 01fa 1B88     		ldrh	r3, [r3]	@ unaligned
 414 01fc A381     		strh	r3, [r4, #12]	@ unaligned
 164:Interrupt_Routines.c ****                             UART_Debug_PutString(mex);
 415              		.loc 1 164 0
 416 01fe 2046     		mov	r0, r4
 417 0200 FFF7FEFF 		bl	UART_Debug_PutString
 418              	.LVL15:
 165:Interrupt_Routines.c ****                             repetition=0;
 419              		.loc 1 165 0
 420 0204 0023     		movs	r3, #0
 421 0206 084A     		ldr	r2, .L28+16
 422 0208 1370     		strb	r3, [r2]
 166:Interrupt_Routines.c ****                             status=0;
 423              		.loc 1 166 0
 424 020a 034A     		ldr	r2, .L28
 425 020c 1370     		strb	r3, [r2]
 426              	.L23:
 167:Interrupt_Routines.c ****                             
 168:Interrupt_Routines.c ****                             
 169:Interrupt_Routines.c ****                         }
 170:Interrupt_Routines.c ****                         
 171:Interrupt_Routines.c ****                         counter_button=0;
 427              		.loc 1 171 0
 428 020e 034B     		ldr	r3, .L28+4
 429 0210 0022     		movs	r2, #0
 430 0212 1A80     		strh	r2, [r3]	@ movhi
 172:Interrupt_Routines.c ****                         timer_counter=0;
 431              		.loc 1 172 0
 432 0214 5A80     		strh	r2, [r3, #2]	@ movhi
 433 0216 70BD     		pop	{r4, r5, r6, pc}
 434              	.L29:
 435              		.align	2
 436              	.L28:
 437 0218 00000000 		.word	status
 438 021c 00000000 		.word	.LANCHOR0
 439 0220 00000000 		.word	mex
 440 0224 18000000 		.word	.LC1
 441 0228 00000000 		.word	repetition
 442 022c 2C000000 		.word	.LC2
 443 0230 00000000 		.word	counter_blue
 444 0234 00000000 		.word	counter_green
 445 0238 00000000 		.word	counter_red
 446 023c 00000000 		.word	period_blue
 447 0240 00000000 		.word	period_green
 448 0244 00000000 		.word	period_red
 449 0248 00000000 		.word	timestamp
 450 024c 4C000000 		.word	.LC3
 451              	.L10:
 173:Interrupt_Routines.c ****                         
 174:Interrupt_Routines.c ****                         
 175:Interrupt_Routines.c ****                     }
 176:Interrupt_Routines.c ****                     
ARM GAS  C:\Users\Riccardo\AppData\Local\Temp\ccjNcLE2.s 			page 12


 177:Interrupt_Routines.c ****                     
 178:Interrupt_Routines.c ****                 }
 179:Interrupt_Routines.c ****                         
 180:Interrupt_Routines.c ****                         
 181:Interrupt_Routines.c ****         break;
 182:Interrupt_Routines.c ****         case 2:
 183:Interrupt_Routines.c ****                 
 184:Interrupt_Routines.c ****                 
 185:Interrupt_Routines.c ****                 counter_int_led--;
 452              		.loc 1 185 0
 453 0250 2C4A     		ldr	r2, .L30
 454 0252 1388     		ldrh	r3, [r2]
 455 0254 9BB2     		uxth	r3, r3
 456 0256 013B     		subs	r3, r3, #1
 457 0258 9BB2     		uxth	r3, r3
 458 025a 1380     		strh	r3, [r2]	@ movhi
 186:Interrupt_Routines.c ****                 counter_blue--;
 459              		.loc 1 186 0
 460 025c 2A4A     		ldr	r2, .L30+4
 461 025e 1388     		ldrh	r3, [r2]
 462 0260 9BB2     		uxth	r3, r3
 463 0262 013B     		subs	r3, r3, #1
 464 0264 9BB2     		uxth	r3, r3
 465 0266 1380     		strh	r3, [r2]	@ movhi
 187:Interrupt_Routines.c ****                 timestamp++;
 466              		.loc 1 187 0
 467 0268 284A     		ldr	r2, .L30+8
 468 026a 1368     		ldr	r3, [r2]
 469 026c 0133     		adds	r3, r3, #1
 470 026e 1360     		str	r3, [r2]
 188:Interrupt_Routines.c ****                 
 189:Interrupt_Routines.c ****                 
 190:Interrupt_Routines.c ****                 
 191:Interrupt_Routines.c ****                 if (counter_button!=0){
 471              		.loc 1 191 0
 472 0270 274B     		ldr	r3, .L30+12
 473 0272 1B88     		ldrh	r3, [r3]
 474 0274 9BB2     		uxth	r3, r3
 475 0276 23B3     		cbz	r3, .L24
 192:Interrupt_Routines.c ****                     timer_counter++;
 476              		.loc 1 192 0
 477 0278 254A     		ldr	r2, .L30+12
 478 027a 5388     		ldrh	r3, [r2, #2]
 479 027c 0133     		adds	r3, r3, #1
 480 027e 9BB2     		uxth	r3, r3
 481 0280 5380     		strh	r3, [r2, #2]	@ movhi
 193:Interrupt_Routines.c ****                     if (timer_counter>1000){
 482              		.loc 1 193 0
 483 0282 B3F57A7F 		cmp	r3, #1000
 484 0286 1CD9     		bls	.L24
 194:Interrupt_Routines.c ****                         
 195:Interrupt_Routines.c ****                         
 196:Interrupt_Routines.c ****                         
 197:Interrupt_Routines.c ****                         if (counter_button>3){
 485              		.loc 1 197 0
 486 0288 1388     		ldrh	r3, [r2]
 487 028a 9BB2     		uxth	r3, r3
ARM GAS  C:\Users\Riccardo\AppData\Local\Temp\ccjNcLE2.s 			page 13


 488 028c 032B     		cmp	r3, #3
 489 028e 14D9     		bls	.L25
 198:Interrupt_Routines.c ****                             sprintf(mex, "Switch to ON Mode \r\n");
 490              		.loc 1 198 0
 491 0290 204D     		ldr	r5, .L30+16
 492 0292 214C     		ldr	r4, .L30+20
 493 0294 0FCC     		ldmia	r4!, {r0, r1, r2, r3}
 494 0296 2860     		str	r0, [r5]	@ unaligned
 495 0298 6960     		str	r1, [r5, #4]	@ unaligned
 496 029a AA60     		str	r2, [r5, #8]	@ unaligned
 497 029c EB60     		str	r3, [r5, #12]	@ unaligned
 498 029e 2068     		ldr	r0, [r4]	@ unaligned
 499 02a0 2861     		str	r0, [r5, #16]	@ unaligned
 500 02a2 2379     		ldrb	r3, [r4, #4]	@ zero_extendqisi2
 501 02a4 2B75     		strb	r3, [r5, #20]
 199:Interrupt_Routines.c ****                             repetition=0;
 502              		.loc 1 199 0
 503 02a6 0022     		movs	r2, #0
 504 02a8 1C4B     		ldr	r3, .L30+24
 505 02aa 1A70     		strb	r2, [r3]
 200:Interrupt_Routines.c ****                             UART_Debug_PutString(mex);
 506              		.loc 1 200 0
 507 02ac 2846     		mov	r0, r5
 508 02ae FFF7FEFF 		bl	UART_Debug_PutString
 509              	.LVL16:
 201:Interrupt_Routines.c ****                             status= prev_state;
 510              		.loc 1 201 0
 511 02b2 174B     		ldr	r3, .L30+12
 512 02b4 1A79     		ldrb	r2, [r3, #4]	@ zero_extendqisi2
 513 02b6 1A4B     		ldr	r3, .L30+28
 514 02b8 1A70     		strb	r2, [r3]
 515              	.L25:
 202:Interrupt_Routines.c **** 
 203:Interrupt_Routines.c ****                         
 204:Interrupt_Routines.c ****                         }
 205:Interrupt_Routines.c ****                         
 206:Interrupt_Routines.c ****                         
 207:Interrupt_Routines.c ****                         counter_button=0;
 516              		.loc 1 207 0
 517 02ba 154B     		ldr	r3, .L30+12
 518 02bc 0022     		movs	r2, #0
 519 02be 1A80     		strh	r2, [r3]	@ movhi
 208:Interrupt_Routines.c ****                         timer_counter=0;
 520              		.loc 1 208 0
 521 02c0 5A80     		strh	r2, [r3, #2]	@ movhi
 522              	.L24:
 209:Interrupt_Routines.c ****                          
 210:Interrupt_Routines.c ****                     }
 211:Interrupt_Routines.c ****                 }
 212:Interrupt_Routines.c ****                 /********************* INTERNAL LED ******************/
 213:Interrupt_Routines.c ****                 /* If the counter variable goes to 0, the Blue channel must be toggled*/
 214:Interrupt_Routines.c ****                 if (counter_int_led==0)
 523              		.loc 1 214 0
 524 02c2 104B     		ldr	r3, .L30
 525 02c4 1B88     		ldrh	r3, [r3]
 526 02c6 9BB2     		uxth	r3, r3
 527 02c8 63B9     		cbnz	r3, .L26
ARM GAS  C:\Users\Riccardo\AppData\Local\Temp\ccjNcLE2.s 			page 14


 215:Interrupt_Routines.c ****                     {
 216:Interrupt_Routines.c ****                         ADC_flag=1;
 528              		.loc 1 216 0
 529 02ca 0122     		movs	r2, #1
 530 02cc 154B     		ldr	r3, .L30+32
 531 02ce 1A70     		strb	r2, [r3]
 217:Interrupt_Routines.c ****                         /* Toggle the Led only if the period set is lower than the THR_OFF */
 218:Interrupt_Routines.c ****                         INT_Led_Write(~INT_Led_Read());
 532              		.loc 1 218 0
 533 02d0 FFF7FEFF 		bl	INT_Led_Read
 534              	.LVL17:
 535 02d4 C043     		mvns	r0, r0
 536 02d6 C0B2     		uxtb	r0, r0
 537 02d8 FFF7FEFF 		bl	INT_Led_Write
 538              	.LVL18:
 219:Interrupt_Routines.c ****                         /* Reset the counter to the period value */
 220:Interrupt_Routines.c ****                         counter_int_led = period_int_led;
 539              		.loc 1 220 0
 540 02dc 124B     		ldr	r3, .L30+36
 541 02de 1B78     		ldrb	r3, [r3]	@ zero_extendqisi2
 542 02e0 084A     		ldr	r2, .L30
 543 02e2 1380     		strh	r3, [r2]	@ movhi
 544              	.L26:
 221:Interrupt_Routines.c ****                     }
 222:Interrupt_Routines.c ****     
 223:Interrupt_Routines.c ****                 
 224:Interrupt_Routines.c **** 
 225:Interrupt_Routines.c ****     
 226:Interrupt_Routines.c ****                 /********************* BLUE LED ******************/
 227:Interrupt_Routines.c ****                 /* If the counter variable goes to 0, the Blue channel must be toggled*/
 228:Interrupt_Routines.c ****                 if (counter_blue==0)
 545              		.loc 1 228 0
 546 02e4 084B     		ldr	r3, .L30+4
 547 02e6 1B88     		ldrh	r3, [r3]
 548 02e8 9BB2     		uxth	r3, r3
 549 02ea 53B9     		cbnz	r3, .L6
 229:Interrupt_Routines.c ****                     {
 230:Interrupt_Routines.c ****                         BLUE_Led_Write(~BLUE_Led_Read());
 550              		.loc 1 230 0
 551 02ec FFF7FEFF 		bl	BLUE_Led_Read
 552              	.LVL19:
 553 02f0 C043     		mvns	r0, r0
 554 02f2 C0B2     		uxtb	r0, r0
 555 02f4 FFF7FEFF 		bl	BLUE_Led_Write
 556              	.LVL20:
 231:Interrupt_Routines.c ****                         /* Reset the counter to the period value */
 232:Interrupt_Routines.c ****                         counter_blue = period_blue;
 557              		.loc 1 232 0
 558 02f8 0C4B     		ldr	r3, .L30+40
 559 02fa 1B88     		ldrh	r3, [r3]
 560 02fc 9BB2     		uxth	r3, r3
 561 02fe 024A     		ldr	r2, .L30+4
 562 0300 1380     		strh	r3, [r2]	@ movhi
 563              	.L6:
 564 0302 70BD     		pop	{r4, r5, r6, pc}
 565              	.L31:
 566              		.align	2
ARM GAS  C:\Users\Riccardo\AppData\Local\Temp\ccjNcLE2.s 			page 15


 567              	.L30:
 568 0304 00000000 		.word	counter_int_led
 569 0308 00000000 		.word	counter_blue
 570 030c 00000000 		.word	timestamp
 571 0310 00000000 		.word	.LANCHOR0
 572 0314 00000000 		.word	mex
 573 0318 5C000000 		.word	.LC4
 574 031c 00000000 		.word	repetition
 575 0320 00000000 		.word	status
 576 0324 00000000 		.word	ADC_flag
 577 0328 00000000 		.word	period_int_led
 578 032c 00000000 		.word	period_blue
 579              		.cfi_endproc
 580              	.LFE65:
 581              		.size	ISR_TIMER, .-ISR_TIMER
 582              		.section	.text.ISR_COUNTER_BUTTON,"ax",%progbits
 583              		.align	2
 584              		.global	ISR_COUNTER_BUTTON
 585              		.thumb
 586              		.thumb_func
 587              		.type	ISR_COUNTER_BUTTON, %function
 588              	ISR_COUNTER_BUTTON:
 589              	.LFB66:
 233:Interrupt_Routines.c ****                     }
 234:Interrupt_Routines.c ****     
 235:Interrupt_Routines.c ****                 
 236:Interrupt_Routines.c ****                 
 237:Interrupt_Routines.c ****      
 238:Interrupt_Routines.c ****     
 239:Interrupt_Routines.c ****                 
 240:Interrupt_Routines.c ****                 
 241:Interrupt_Routines.c ****                 
 242:Interrupt_Routines.c ****         break;
 243:Interrupt_Routines.c ****     
 244:Interrupt_Routines.c ****     }
 245:Interrupt_Routines.c **** }
 246:Interrupt_Routines.c **** 
 247:Interrupt_Routines.c **** 
 248:Interrupt_Routines.c ****  CY_ISR(ISR_COUNTER_BUTTON)
 249:Interrupt_Routines.c **** {
 590              		.loc 1 249 0
 591              		.cfi_startproc
 592              		@ args = 0, pretend = 0, frame = 0
 593              		@ frame_needed = 0, uses_anonymous_args = 0
 594 0000 38B5     		push	{r3, r4, r5, lr}
 595              		.cfi_def_cfa_offset 16
 596              		.cfi_offset 3, -16
 597              		.cfi_offset 4, -12
 598              		.cfi_offset 5, -8
 599              		.cfi_offset 14, -4
 250:Interrupt_Routines.c ****     Timer_Button_ReadStatusRegister();
 600              		.loc 1 250 0
 601 0002 FFF7FEFF 		bl	Timer_Button_ReadStatusRegister
 602              	.LVL21:
 251:Interrupt_Routines.c ****     counter_button++;
 603              		.loc 1 251 0
 604 0006 094A     		ldr	r2, .L34
ARM GAS  C:\Users\Riccardo\AppData\Local\Temp\ccjNcLE2.s 			page 16


 605 0008 1388     		ldrh	r3, [r2]
 606 000a 9BB2     		uxth	r3, r3
 607 000c 0133     		adds	r3, r3, #1
 608 000e 9BB2     		uxth	r3, r3
 609 0010 1380     		strh	r3, [r2]	@ movhi
 252:Interrupt_Routines.c ****     
 253:Interrupt_Routines.c ****     sprintf(mex, "Button Pressed \r\n");
 610              		.loc 1 253 0
 611 0012 074D     		ldr	r5, .L34+4
 612 0014 074C     		ldr	r4, .L34+8
 613 0016 0FCC     		ldmia	r4!, {r0, r1, r2, r3}
 614 0018 2860     		str	r0, [r5]	@ unaligned
 615 001a 6960     		str	r1, [r5, #4]	@ unaligned
 616 001c AA60     		str	r2, [r5, #8]	@ unaligned
 617 001e EB60     		str	r3, [r5, #12]	@ unaligned
 618 0020 2388     		ldrh	r3, [r4]	@ unaligned
 619 0022 2B82     		strh	r3, [r5, #16]	@ unaligned
 254:Interrupt_Routines.c ****     UART_Debug_PutString(mex);
 620              		.loc 1 254 0
 621 0024 2846     		mov	r0, r5
 622 0026 FFF7FEFF 		bl	UART_Debug_PutString
 623              	.LVL22:
 624 002a 38BD     		pop	{r3, r4, r5, pc}
 625              	.L35:
 626              		.align	2
 627              	.L34:
 628 002c 00000000 		.word	.LANCHOR0
 629 0030 00000000 		.word	mex
 630 0034 74000000 		.word	.LC5
 631              		.cfi_endproc
 632              	.LFE66:
 633              		.size	ISR_COUNTER_BUTTON, .-ISR_COUNTER_BUTTON
 634              		.comm	mex,50,4
 635              		.global	timer_counter
 636              		.global	counter_button
 637              		.global	prev_state
 638              		.comm	int1_src_reg,1,1
 639              		.comm	watermark,1,1
 640              		.comm	error,1,1
 641              		.comm	timestamp,4,4
 642              		.comm	flag_eeprom,1,1
 643              		.comm	counter_int_led,2,2
 644              		.comm	counter_blue,2,2
 645              		.comm	counter_green,2,2
 646              		.comm	counter_red,2,2
 647              		.comm	period_int_led,1,1
 648              		.comm	period_blue,2,2
 649              		.comm	period_green,2,2
 650              		.comm	period_red,2,2
 651              		.comm	repetition,1,1
 652              		.comm	ADC_flag,1,1
 653              		.comm	status,1,1
 654              		.comm	OVR_FLAG,1,1
 655              		.section	.rodata.str1.4,"aMS",%progbits,1
 656              		.align	2
 657              	.LC0:
 658 0000 4F766572 		.ascii	"Overthreshold event \015\012\000"
ARM GAS  C:\Users\Riccardo\AppData\Local\Temp\ccjNcLE2.s 			page 17


 658      74687265 
 658      73686F6C 
 658      64206576 
 658      656E7420 
 659 0017 00       		.space	1
 660              	.LC1:
 661 0018 53776974 		.ascii	"Switch ON device \015\012\000"
 661      6368204F 
 661      4E206465 
 661      76696365 
 661      200D0A00 
 662              	.LC2:
 663 002c 53776974 		.ascii	"Switch to Configuration Mode \015\012\000"
 663      63682074 
 663      6F20436F 
 663      6E666967 
 663      75726174 
 664              	.LC3:
 665 004c 53776974 		.ascii	"Switch OFF \015\012\000"
 665      6368204F 
 665      4646200D 
 665      0A00
 666 005a 0000     		.space	2
 667              	.LC4:
 668 005c 53776974 		.ascii	"Switch to ON Mode \015\012\000"
 668      63682074 
 668      6F204F4E 
 668      204D6F64 
 668      65200D0A 
 669 0071 000000   		.space	3
 670              	.LC5:
 671 0074 42757474 		.ascii	"Button Pressed \015\012\000"
 671      6F6E2050 
 671      72657373 
 671      6564200D 
 671      0A00
 672              		.bss
 673              		.align	1
 674              		.set	.LANCHOR0,. + 0
 675              		.type	counter_button, %object
 676              		.size	counter_button, 2
 677              	counter_button:
 678 0000 0000     		.space	2
 679              		.type	timer_counter, %object
 680              		.size	timer_counter, 2
 681              	timer_counter:
 682 0002 0000     		.space	2
 683              		.type	prev_state, %object
 684              		.size	prev_state, 1
 685              	prev_state:
 686 0004 00       		.space	1
 687              		.text
 688              	.Letext0:
 689              		.file 2 "c:\\program files (x86)\\cypress\\psoc creator\\4.3\\psoc creator\\import\\gnu\\arm\\5.4.
 690              		.file 3 "c:\\program files (x86)\\cypress\\psoc creator\\4.3\\psoc creator\\import\\gnu\\arm\\5.4.
 691              		.file 4 "Generated_Source\\PSoC5/core_cm3.h"
 692              		.file 5 "Interrupt_Routines.h"
ARM GAS  C:\Users\Riccardo\AppData\Local\Temp\ccjNcLE2.s 			page 18


 693              		.file 6 "I2C_Interface.h"
 694              		.file 7 "Generated_Source\\PSoC5/UART_Debug.h"
 695              		.file 8 "Generated_Source\\PSoC5/Timer.h"
 696              		.file 9 "Generated_Source\\PSoC5/BLUE_Led.h"
 697              		.file 10 "Generated_Source\\PSoC5/GREEN_Led.h"
 698              		.file 11 "Generated_Source\\PSoC5/RED_Led.h"
 699              		.file 12 "Generated_Source\\PSoC5/INT_Led.h"
 700              		.file 13 "Generated_Source\\PSoC5/Timer_Button.h"