ARM GAS  C:\Users\Riccardo\AppData\Local\Temp\ccjNcLE2.s 			page 1


   1              		.syntax unified
   2              		.cpu cortex-m3
   3              		.fpu softvfp
   4              		.eabi_attribute 20, 1
   5              		.eabi_attribute 21, 1
   6              		.eabi_attribute 23, 3
   7              		.eabi_attribute 24, 1
   8              		.eabi_attribute 25, 1
   9              		.eabi_attribute 26, 1
  10              		.eabi_attribute 30, 1
  11              		.eabi_attribute 34, 1
  12              		.eabi_attribute 18, 4
  13              		.thumb
  14              		.syntax unified
  15              		.file	"Interrupt_Routines.c"
  16              		.text
  17              	.Ltext0:
  18              		.cfi_sections	.debug_frame
  19              		.section	.text.ISR_LIS3DH_FIFO_WATERMARK,"ax",%progbits
  20              		.align	2
  21              		.global	ISR_LIS3DH_FIFO_WATERMARK
  22              		.thumb
  23              		.thumb_func
  24              		.type	ISR_LIS3DH_FIFO_WATERMARK, %function
  25              	ISR_LIS3DH_FIFO_WATERMARK:
  26              	.LFB64:
  27              		.file 1 "Interrupt_Routines.c"
   1:Interrupt_Routines.c **** /* ========================================
   2:Interrupt_Routines.c ****  *
   3:Interrupt_Routines.c ****  * Copyright YOUR COMPANY, THE YEAR
   4:Interrupt_Routines.c ****  * All Rights Reserved
   5:Interrupt_Routines.c ****  * UNPUBLISHED, LICENSED SOFTWARE.
   6:Interrupt_Routines.c ****  *
   7:Interrupt_Routines.c ****  * CONFIDENTIAL AND PROPRIETARY INFORMATION
   8:Interrupt_Routines.c ****  * WHICH IS THE PROPERTY OF your company.
   9:Interrupt_Routines.c ****  *
  10:Interrupt_Routines.c ****  * ========================================
  11:Interrupt_Routines.c **** */
  12:Interrupt_Routines.c **** #include "project.h"
  13:Interrupt_Routines.c **** #include "Interrupt_Routines.h"
  14:Interrupt_Routines.c **** #include "stdio.h"
  15:Interrupt_Routines.c **** #include "ErrorCodes.h"
  16:Interrupt_Routines.c **** #include "I2C_Interface.h"
  17:Interrupt_Routines.c **** #include "LIS3DH_Registers.h"
  18:Interrupt_Routines.c **** #include "LIS3DH_Registers_Settings.h"
  19:Interrupt_Routines.c **** uint8_t error;
  20:Interrupt_Routines.c **** uint8_t watermark;
  21:Interrupt_Routines.c **** uint8_t int1_src_reg;
  22:Interrupt_Routines.c **** uint8_t prev_state=0;
  23:Interrupt_Routines.c **** volatile uint16_t counter_button=0;
  24:Interrupt_Routines.c **** 
  25:Interrupt_Routines.c **** uint16_t timer_counter=0;
  26:Interrupt_Routines.c **** 
  27:Interrupt_Routines.c **** 
  28:Interrupt_Routines.c **** /* Variable that contains the message for UART debug communication*/
  29:Interrupt_Routines.c **** char mex[50];
  30:Interrupt_Routines.c **** 
ARM GAS  C:\Users\Riccardo\AppData\Local\Temp\ccjNcLE2.s 			page 2


  31:Interrupt_Routines.c **** 
  32:Interrupt_Routines.c **** /* Custom Interrupt on FIFO watermark */
  33:Interrupt_Routines.c ****  CY_ISR(ISR_LIS3DH_FIFO_WATERMARK)
  34:Interrupt_Routines.c **** {/*error = I2C_Peripheral_ReadRegister(LIS3DH_DEVICE_ADDRESS,
  28              		.loc 1 34 0
  29              		.cfi_startproc
  30              		@ args = 0, pretend = 0, frame = 0
  31              		@ frame_needed = 0, uses_anonymous_args = 0
  32 0000 38B5     		push	{r3, r4, r5, lr}
  33              		.cfi_def_cfa_offset 16
  34              		.cfi_offset 3, -16
  35              		.cfi_offset 4, -12
  36              		.cfi_offset 5, -8
  37              		.cfi_offset 14, -4
  35:Interrupt_Routines.c ****                                         LIS3DH_CTRL_REG4,
  36:Interrupt_Routines.c ****                                         &watermark);
  37:Interrupt_Routines.c **** if((watermark & 0b10000000)==0b10000000)  OVR_FLAG=1;*/
  38:Interrupt_Routines.c **** error = I2C_Peripheral_ReadRegister(LIS3DH_DEVICE_ADDRESS,
  38              		.loc 1 38 0
  39 0002 114C     		ldr	r4, .L4
  40 0004 2246     		mov	r2, r4
  41 0006 3121     		movs	r1, #49
  42 0008 1820     		movs	r0, #24
  43 000a FFF7FEFF 		bl	I2C_Peripheral_ReadRegister
  44              	.LVL0:
  45 000e 0F4B     		ldr	r3, .L4+4
  46 0010 1870     		strb	r0, [r3]
  39:Interrupt_Routines.c ****                                      LIS3DH_INT1_SRC,
  40:Interrupt_Routines.c ****                                      &int1_src_reg);
  41:Interrupt_Routines.c **** if(int1_src_reg & 0x40) //read if 1 or more interrupts have been generated on INT1_SRC_REG
  47              		.loc 1 41 0
  48 0012 2378     		ldrb	r3, [r4]	@ zero_extendqisi2
  49 0014 13F0400F 		tst	r3, #64
  50 0018 12D0     		beq	.L2
  42:Interrupt_Routines.c **** {
  43:Interrupt_Routines.c ****     sprintf(mex, "Overthreshold event \r\n");
  51              		.loc 1 43 0
  52 001a 0D4D     		ldr	r5, .L4+8
  53 001c 0D4C     		ldr	r4, .L4+12
  54 001e 0FCC     		ldmia	r4!, {r0, r1, r2, r3}
  55 0020 2860     		str	r0, [r5]	@ unaligned
  56 0022 6960     		str	r1, [r5, #4]	@ unaligned
  57 0024 AA60     		str	r2, [r5, #8]	@ unaligned
  58 0026 EB60     		str	r3, [r5, #12]	@ unaligned
  59 0028 2068     		ldr	r0, [r4]	@ unaligned
  60 002a 2861     		str	r0, [r5, #16]	@ unaligned
  61 002c A288     		ldrh	r2, [r4, #4]	@ unaligned
  62 002e A379     		ldrb	r3, [r4, #6]	@ zero_extendqisi2
  63 0030 AA82     		strh	r2, [r5, #20]	@ unaligned
  64 0032 AB75     		strb	r3, [r5, #22]
  44:Interrupt_Routines.c ****     UART_Debug_PutString(mex);
  65              		.loc 1 44 0
  66 0034 2846     		mov	r0, r5
  67 0036 FFF7FEFF 		bl	UART_Debug_PutString
  68              	.LVL1:
  45:Interrupt_Routines.c ****     flag_eeprom=1;
  69              		.loc 1 45 0
ARM GAS  C:\Users\Riccardo\AppData\Local\Temp\ccjNcLE2.s 			page 3


  70 003a 0122     		movs	r2, #1
  71 003c 064B     		ldr	r3, .L4+16
  72 003e 1A70     		strb	r2, [r3]
  73              	.L2:
  46:Interrupt_Routines.c **** }
  47:Interrupt_Routines.c **** 
  48:Interrupt_Routines.c **** OVR_FLAG=1;
  74              		.loc 1 48 0
  75 0040 0122     		movs	r2, #1
  76 0042 064B     		ldr	r3, .L4+20
  77 0044 1A70     		strb	r2, [r3]
  78 0046 38BD     		pop	{r3, r4, r5, pc}
  79              	.L5:
  80              		.align	2
  81              	.L4:
  82 0048 00000000 		.word	int1_src_reg
  83 004c 00000000 		.word	error
  84 0050 00000000 		.word	mex
  85 0054 00000000 		.word	.LC0
  86 0058 00000000 		.word	flag_eeprom
  87 005c 00000000 		.word	OVR_FLAG
  88              		.cfi_endproc
  89              	.LFE64:
  90              		.size	ISR_LIS3DH_FIFO_WATERMARK, .-ISR_LIS3DH_FIFO_WATERMARK
  91              		.section	.text.ISR_TIMER,"ax",%progbits
  92              		.align	2
  93              		.global	ISR_TIMER
  94              		.thumb
  95              		.thumb_func
  96              		.type	ISR_TIMER, %function
  97              	ISR_TIMER:
  98              	.LFB65:
  49:Interrupt_Routines.c **** }
  50:Interrupt_Routines.c **** 
  51:Interrupt_Routines.c **** /* Custom Interrupt on Timer counter */
  52:Interrupt_Routines.c **** CY_ISR (ISR_TIMER)
  53:Interrupt_Routines.c **** {
  99              		.loc 1 53 0
 100              		.cfi_startproc
 101              		@ args = 0, pretend = 0, frame = 0
 102              		@ frame_needed = 0, uses_anonymous_args = 0
 103 0000 70B5     		push	{r4, r5, r6, lr}
 104              		.cfi_def_cfa_offset 16
 105              		.cfi_offset 4, -16
 106              		.cfi_offset 5, -12
 107              		.cfi_offset 6, -8
 108              		.cfi_offset 14, -4
  54:Interrupt_Routines.c ****     
  55:Interrupt_Routines.c ****     /* Read Timer Status Register to reset the counter */
  56:Interrupt_Routines.c ****     Timer_ReadStatusRegister();
 109              		.loc 1 56 0
 110 0002 FFF7FEFF 		bl	Timer_ReadStatusRegister
 111              	.LVL2:
  57:Interrupt_Routines.c ****     
  58:Interrupt_Routines.c ****     switch (status){
 112              		.loc 1 58 0
 113 0006 844B     		ldr	r3, .L28
ARM GAS  C:\Users\Riccardo\AppData\Local\Temp\ccjNcLE2.s 			page 4


 114 0008 1B78     		ldrb	r3, [r3]	@ zero_extendqisi2
 115 000a DBB2     		uxtb	r3, r3
 116 000c 012B     		cmp	r3, #1
 117 000e 4ED0     		beq	.L8
 118 0010 1BB1     		cbz	r3, .L9
 119 0012 022B     		cmp	r3, #2
 120 0014 00F01C81 		beq	.L10
 121 0018 70BD     		pop	{r4, r5, r6, pc}
 122              	.L9:
  59:Interrupt_Routines.c ****         case 0:
  60:Interrupt_Routines.c ****             if (counter_button!=0){
 123              		.loc 1 60 0
 124 001a 804B     		ldr	r3, .L28+4
 125 001c 1B88     		ldrh	r3, [r3]
 126 001e 9BB2     		uxth	r3, r3
 127 0020 002B     		cmp	r3, #0
 128 0022 00F06E81 		beq	.L6
  61:Interrupt_Routines.c ****                 timer_counter++;
 129              		.loc 1 61 0
 130 0026 7D4A     		ldr	r2, .L28+4
 131 0028 5388     		ldrh	r3, [r2, #2]
 132 002a 0133     		adds	r3, r3, #1
 133 002c 9BB2     		uxth	r3, r3
 134 002e 5380     		strh	r3, [r2, #2]	@ movhi
  62:Interrupt_Routines.c ****                 if (timer_counter>1000){
 135              		.loc 1 62 0
 136 0030 B3F57A7F 		cmp	r3, #1000
 137 0034 40F26581 		bls	.L6
  63:Interrupt_Routines.c ****             
  64:Interrupt_Routines.c ****                     
  65:Interrupt_Routines.c ****             
  66:Interrupt_Routines.c ****                     
  67:Interrupt_Routines.c ****                     timer_counter=0;
 138              		.loc 1 67 0
 139 0038 1346     		mov	r3, r2
 140 003a 0022     		movs	r2, #0
 141 003c 5A80     		strh	r2, [r3, #2]	@ movhi
  68:Interrupt_Routines.c ****                     
  69:Interrupt_Routines.c ****                     if (counter_button==2){
 142              		.loc 1 69 0
 143 003e 1B88     		ldrh	r3, [r3]
 144 0040 9BB2     		uxth	r3, r3
 145 0042 022B     		cmp	r3, #2
 146 0044 12D1     		bne	.L11
  70:Interrupt_Routines.c ****                         sprintf(mex, "Switch ON device \r\n");
 147              		.loc 1 70 0
 148 0046 764D     		ldr	r5, .L28+8
 149 0048 764C     		ldr	r4, .L28+12
 150 004a 0FCC     		ldmia	r4!, {r0, r1, r2, r3}
 151 004c 2860     		str	r0, [r5]	@ unaligned
 152 004e 6960     		str	r1, [r5, #4]	@ unaligned
 153 0050 AA60     		str	r2, [r5, #8]	@ unaligned
 154 0052 EB60     		str	r3, [r5, #12]	@ unaligned
 155 0054 2068     		ldr	r0, [r4]	@ unaligned
 156 0056 2861     		str	r0, [r5, #16]	@ unaligned
  71:Interrupt_Routines.c ****                         UART_Debug_PutString(mex);
 157              		.loc 1 71 0
ARM GAS  C:\Users\Riccardo\AppData\Local\Temp\ccjNcLE2.s 			page 5


 158 0058 2846     		mov	r0, r5
 159 005a FFF7FEFF 		bl	UART_Debug_PutString
 160              	.LVL3:
  72:Interrupt_Routines.c ****                         repetition=0;
 161              		.loc 1 72 0
 162 005e 0022     		movs	r2, #0
 163 0060 714B     		ldr	r3, .L28+16
 164 0062 1A70     		strb	r2, [r3]
  73:Interrupt_Routines.c ****                         status=1;
 165              		.loc 1 73 0
 166 0064 0122     		movs	r2, #1
 167 0066 6C4B     		ldr	r3, .L28
 168 0068 1A70     		strb	r2, [r3]
 169 006a 1CE0     		b	.L12
 170              	.L11:
  74:Interrupt_Routines.c ****                         
  75:Interrupt_Routines.c ****                     }
  76:Interrupt_Routines.c ****                     else if (counter_button>3){
 171              		.loc 1 76 0
 172 006c 6B4B     		ldr	r3, .L28+4
 173 006e 1B88     		ldrh	r3, [r3]
 174 0070 9BB2     		uxth	r3, r3
 175 0072 032B     		cmp	r3, #3
 176 0074 17D9     		bls	.L12
  77:Interrupt_Routines.c ****                         prev_state=status;
 177              		.loc 1 77 0
 178 0076 684E     		ldr	r6, .L28
 179 0078 3278     		ldrb	r2, [r6]	@ zero_extendqisi2
 180 007a 684B     		ldr	r3, .L28+4
 181 007c 1A71     		strb	r2, [r3, #4]
  78:Interrupt_Routines.c ****                         sprintf(mex, "Switch to Configuration Mode \r\n");
 182              		.loc 1 78 0
 183 007e 684D     		ldr	r5, .L28+8
 184 0080 6A4C     		ldr	r4, .L28+20
 185 0082 0FCC     		ldmia	r4!, {r0, r1, r2, r3}
 186 0084 2860     		str	r0, [r5]	@ unaligned
 187 0086 6960     		str	r1, [r5, #4]	@ unaligned
 188 0088 AA60     		str	r2, [r5, #8]	@ unaligned
 189 008a EB60     		str	r3, [r5, #12]	@ unaligned
 190 008c 0FCC     		ldmia	r4!, {r0, r1, r2, r3}
 191 008e 2861     		str	r0, [r5, #16]	@ unaligned
 192 0090 6961     		str	r1, [r5, #20]	@ unaligned
 193 0092 AA61     		str	r2, [r5, #24]	@ unaligned
 194 0094 EB61     		str	r3, [r5, #28]	@ unaligned
  79:Interrupt_Routines.c ****                         UART_Debug_PutString(mex);
 195              		.loc 1 79 0
 196 0096 2846     		mov	r0, r5
 197 0098 FFF7FEFF 		bl	UART_Debug_PutString
 198              	.LVL4:
  80:Interrupt_Routines.c ****                         repetition=0;
 199              		.loc 1 80 0
 200 009c 0022     		movs	r2, #0
 201 009e 624B     		ldr	r3, .L28+16
 202 00a0 1A70     		strb	r2, [r3]
  81:Interrupt_Routines.c ****                         status=2;
 203              		.loc 1 81 0
 204 00a2 0223     		movs	r3, #2
ARM GAS  C:\Users\Riccardo\AppData\Local\Temp\ccjNcLE2.s 			page 6


 205 00a4 3370     		strb	r3, [r6]
 206              	.L12:
  82:Interrupt_Routines.c ****                         
  83:Interrupt_Routines.c ****                     }
  84:Interrupt_Routines.c ****                     
  85:Interrupt_Routines.c ****                     counter_button=0;
 207              		.loc 1 85 0
 208 00a6 0022     		movs	r2, #0
 209 00a8 5C4B     		ldr	r3, .L28+4
 210 00aa 1A80     		strh	r2, [r3]	@ movhi
 211 00ac 70BD     		pop	{r4, r5, r6, pc}
 212              	.L8:
  86:Interrupt_Routines.c ****                 }
  87:Interrupt_Routines.c ****             }
  88:Interrupt_Routines.c ****         break;
  89:Interrupt_Routines.c ****         
  90:Interrupt_Routines.c ****         case 1:
  91:Interrupt_Routines.c ****             
  92:Interrupt_Routines.c ****             /* Decrement the counter variable when Interrupt occurs */
  93:Interrupt_Routines.c ****                 counter_blue--;
 213              		.loc 1 93 0
 214 00ae 604A     		ldr	r2, .L28+24
 215 00b0 1388     		ldrh	r3, [r2]
 216 00b2 9BB2     		uxth	r3, r3
 217 00b4 013B     		subs	r3, r3, #1
 218 00b6 9BB2     		uxth	r3, r3
 219 00b8 1380     		strh	r3, [r2]	@ movhi
  94:Interrupt_Routines.c ****                 counter_green--;
 220              		.loc 1 94 0
 221 00ba 5E49     		ldr	r1, .L28+28
 222 00bc 0B88     		ldrh	r3, [r1]
 223 00be 9BB2     		uxth	r3, r3
 224 00c0 013B     		subs	r3, r3, #1
 225 00c2 9BB2     		uxth	r3, r3
 226 00c4 0B80     		strh	r3, [r1]	@ movhi
  95:Interrupt_Routines.c ****                 counter_red--;
 227              		.loc 1 95 0
 228 00c6 5C49     		ldr	r1, .L28+32
 229 00c8 0B88     		ldrh	r3, [r1]
 230 00ca 9BB2     		uxth	r3, r3
 231 00cc 013B     		subs	r3, r3, #1
 232 00ce 9BB2     		uxth	r3, r3
 233 00d0 0B80     		strh	r3, [r1]	@ movhi
  96:Interrupt_Routines.c ****     
  97:Interrupt_Routines.c ****                 /********************* BLUE LED ******************/
  98:Interrupt_Routines.c ****                 /* If the counter variable goes to 0, the Blue channel must be toggled*/
  99:Interrupt_Routines.c ****                 if (counter_blue==0)
 234              		.loc 1 99 0
 235 00d2 1388     		ldrh	r3, [r2]
 236 00d4 9BB2     		uxth	r3, r3
 237 00d6 83B9     		cbnz	r3, .L13
 100:Interrupt_Routines.c ****                     {
 101:Interrupt_Routines.c ****                         /* Toggle the Led only if the period set is lower than the THR_OFF */
 102:Interrupt_Routines.c ****                         if (period_blue<=THR_OFF) BLUE_Led_Write(~BLUE_Led_Read());
 238              		.loc 1 102 0
 239 00d8 584B     		ldr	r3, .L28+36
 240 00da 1B88     		ldrh	r3, [r3]
ARM GAS  C:\Users\Riccardo\AppData\Local\Temp\ccjNcLE2.s 			page 7


 241 00dc 9BB2     		uxth	r3, r3
 242 00de B3F5B67F 		cmp	r3, #364
 243 00e2 05D2     		bcs	.L14
 244              		.loc 1 102 0 is_stmt 0 discriminator 1
 245 00e4 FFF7FEFF 		bl	BLUE_Led_Read
 246              	.LVL5:
 247 00e8 C043     		mvns	r0, r0
 248 00ea C0B2     		uxtb	r0, r0
 249 00ec FFF7FEFF 		bl	BLUE_Led_Write
 250              	.LVL6:
 251              	.L14:
 103:Interrupt_Routines.c ****                         /* Reset the counter to the period value */
 104:Interrupt_Routines.c ****                         counter_blue = period_blue;
 252              		.loc 1 104 0 is_stmt 1
 253 00f0 524B     		ldr	r3, .L28+36
 254 00f2 1B88     		ldrh	r3, [r3]
 255 00f4 9BB2     		uxth	r3, r3
 256 00f6 4E4A     		ldr	r2, .L28+24
 257 00f8 1380     		strh	r3, [r2]	@ movhi
 258              	.L13:
 105:Interrupt_Routines.c ****                     }
 106:Interrupt_Routines.c ****     
 107:Interrupt_Routines.c ****                 /* In case the period is set more than THR_OFF, turn off the Led */
 108:Interrupt_Routines.c ****                 if (period_blue>THR_OFF)
 259              		.loc 1 108 0
 260 00fa 504B     		ldr	r3, .L28+36
 261 00fc 1B88     		ldrh	r3, [r3]
 262 00fe 9BB2     		uxth	r3, r3
 263 0100 B3F5B67F 		cmp	r3, #364
 264 0104 02D3     		bcc	.L15
 109:Interrupt_Routines.c ****                     {
 110:Interrupt_Routines.c ****                         BLUE_Led_Write(1);
 265              		.loc 1 110 0
 266 0106 0120     		movs	r0, #1
 267 0108 FFF7FEFF 		bl	BLUE_Led_Write
 268              	.LVL7:
 269              	.L15:
 111:Interrupt_Routines.c ****                     }
 112:Interrupt_Routines.c ****      
 113:Interrupt_Routines.c ****     
 114:Interrupt_Routines.c ****                 /******************** GREEN LED *******************/
 115:Interrupt_Routines.c ****                 /* If the counter variable goes to 0, the Green channel must be toggled*/
 116:Interrupt_Routines.c ****                 if (counter_green==0)
 270              		.loc 1 116 0
 271 010c 494B     		ldr	r3, .L28+28
 272 010e 1B88     		ldrh	r3, [r3]
 273 0110 9BB2     		uxth	r3, r3
 274 0112 83B9     		cbnz	r3, .L16
 117:Interrupt_Routines.c ****                 {
 118:Interrupt_Routines.c ****                     /* Toggle the Led only if the period set is lower than the THR_OFF */
 119:Interrupt_Routines.c ****                     if (period_green<=THR_OFF) GREEN_Led_Write(~GREEN_Led_Read());
 275              		.loc 1 119 0
 276 0114 4A4B     		ldr	r3, .L28+40
 277 0116 1B88     		ldrh	r3, [r3]
 278 0118 9BB2     		uxth	r3, r3
 279 011a B3F5B67F 		cmp	r3, #364
 280 011e 05D2     		bcs	.L17
ARM GAS  C:\Users\Riccardo\AppData\Local\Temp\ccjNcLE2.s 			page 8


 281              		.loc 1 119 0 is_stmt 0 discriminator 1
 282 0120 FFF7FEFF 		bl	GREEN_Led_Read
 283              	.LVL8:
 284 0124 C043     		mvns	r0, r0
 285 0126 C0B2     		uxtb	r0, r0
 286 0128 FFF7FEFF 		bl	GREEN_Led_Write
 287              	.LVL9:
 288              	.L17:
 120:Interrupt_Routines.c ****                     /* Reset the counter to the period value */
 121:Interrupt_Routines.c ****                     counter_green = period_green;
 289              		.loc 1 121 0 is_stmt 1
 290 012c 444B     		ldr	r3, .L28+40
 291 012e 1B88     		ldrh	r3, [r3]
 292 0130 9BB2     		uxth	r3, r3
 293 0132 404A     		ldr	r2, .L28+28
 294 0134 1380     		strh	r3, [r2]	@ movhi
 295              	.L16:
 122:Interrupt_Routines.c ****                 }
 123:Interrupt_Routines.c ****                 /* In case the period is set more than THR_OFF, turn off the Led */
 124:Interrupt_Routines.c ****                 if (period_green>THR_OFF)
 296              		.loc 1 124 0
 297 0136 424B     		ldr	r3, .L28+40
 298 0138 1B88     		ldrh	r3, [r3]
 299 013a 9BB2     		uxth	r3, r3
 300 013c B3F5B67F 		cmp	r3, #364
 301 0140 02D3     		bcc	.L18
 125:Interrupt_Routines.c ****                 {
 126:Interrupt_Routines.c ****                     GREEN_Led_Write(1);
 302              		.loc 1 126 0
 303 0142 0120     		movs	r0, #1
 304 0144 FFF7FEFF 		bl	GREEN_Led_Write
 305              	.LVL10:
 306              	.L18:
 127:Interrupt_Routines.c ****                 }
 128:Interrupt_Routines.c ****                 
 129:Interrupt_Routines.c ****                 
 130:Interrupt_Routines.c ****                 /******************* RED LED **********************/
 131:Interrupt_Routines.c ****                 /* If the counter variable goes to 0, the Red channel must be toggled*/
 132:Interrupt_Routines.c ****                 if (counter_red==0 )
 307              		.loc 1 132 0
 308 0148 3B4B     		ldr	r3, .L28+32
 309 014a 1B88     		ldrh	r3, [r3]
 310 014c 9BB2     		uxth	r3, r3
 311 014e 83B9     		cbnz	r3, .L19
 133:Interrupt_Routines.c ****                 {
 134:Interrupt_Routines.c ****                     /* Toggle the Led only if the period set is lower than the THR_OFF */
 135:Interrupt_Routines.c ****                     if (period_red<=THR_OFF) RED_Led_Write(~RED_Led_Read());
 312              		.loc 1 135 0
 313 0150 3C4B     		ldr	r3, .L28+44
 314 0152 1B88     		ldrh	r3, [r3]
 315 0154 9BB2     		uxth	r3, r3
 316 0156 B3F5B67F 		cmp	r3, #364
 317 015a 05D2     		bcs	.L20
 318              		.loc 1 135 0 is_stmt 0 discriminator 1
 319 015c FFF7FEFF 		bl	RED_Led_Read
 320              	.LVL11:
 321 0160 C043     		mvns	r0, r0
ARM GAS  C:\Users\Riccardo\AppData\Local\Temp\ccjNcLE2.s 			page 9


 322 0162 C0B2     		uxtb	r0, r0
 323 0164 FFF7FEFF 		bl	RED_Led_Write
 324              	.LVL12:
 325              	.L20:
 136:Interrupt_Routines.c ****                     /* Reset the counter to the period value */
 137:Interrupt_Routines.c ****                     counter_red = period_red;
 326              		.loc 1 137 0 is_stmt 1
 327 0168 364B     		ldr	r3, .L28+44
 328 016a 1B88     		ldrh	r3, [r3]
 329 016c 9BB2     		uxth	r3, r3
 330 016e 324A     		ldr	r2, .L28+32
 331 0170 1380     		strh	r3, [r2]	@ movhi
 332              	.L19:
 138:Interrupt_Routines.c ****                 }
 139:Interrupt_Routines.c ****                 /* In case the period is set more than THR_OFF, turn off the Led */
 140:Interrupt_Routines.c ****                 if (period_red>THR_OFF)
 333              		.loc 1 140 0
 334 0172 344B     		ldr	r3, .L28+44
 335 0174 1B88     		ldrh	r3, [r3]
 336 0176 9BB2     		uxth	r3, r3
 337 0178 B3F5B67F 		cmp	r3, #364
 338 017c 02D3     		bcc	.L21
 141:Interrupt_Routines.c ****                 {
 142:Interrupt_Routines.c ****                     RED_Led_Write(1);
 339              		.loc 1 142 0
 340 017e 0120     		movs	r0, #1
 341 0180 FFF7FEFF 		bl	RED_Led_Write
 342              	.LVL13:
 343              	.L21:
 143:Interrupt_Routines.c ****                 }
 144:Interrupt_Routines.c ****                 
 145:Interrupt_Routines.c ****                 /******************* TIMESTAMP ********************/
 146:Interrupt_Routines.c ****                 
 147:Interrupt_Routines.c ****                 timestamp++;
 344              		.loc 1 147 0
 345 0184 304A     		ldr	r2, .L28+48
 346 0186 1368     		ldr	r3, [r2]
 347 0188 0133     		adds	r3, r3, #1
 348 018a 1360     		str	r3, [r2]
 148:Interrupt_Routines.c ****                 if (counter_button!=0){
 349              		.loc 1 148 0
 350 018c 234B     		ldr	r3, .L28+4
 351 018e 1B88     		ldrh	r3, [r3]
 352 0190 9BB2     		uxth	r3, r3
 353 0192 002B     		cmp	r3, #0
 354 0194 00F0B580 		beq	.L6
 149:Interrupt_Routines.c ****                     timer_counter++;
 355              		.loc 1 149 0
 356 0198 204A     		ldr	r2, .L28+4
 357 019a 5388     		ldrh	r3, [r2, #2]
 358 019c 0133     		adds	r3, r3, #1
 359 019e 9BB2     		uxth	r3, r3
 360 01a0 5380     		strh	r3, [r2, #2]	@ movhi
 150:Interrupt_Routines.c ****                     if (timer_counter>1000){
 361              		.loc 1 150 0
 362 01a2 B3F57A7F 		cmp	r3, #1000
 363 01a6 40F2AC80 		bls	.L6
ARM GAS  C:\Users\Riccardo\AppData\Local\Temp\ccjNcLE2.s 			page 10


 151:Interrupt_Routines.c ****                         
 152:Interrupt_Routines.c **** 
 153:Interrupt_Routines.c ****                         if (counter_button>3){
 364              		.loc 1 153 0
 365 01aa 1388     		ldrh	r3, [r2]
 366 01ac 9BB2     		uxth	r3, r3
 367 01ae 032B     		cmp	r3, #3
 368 01b0 18D9     		bls	.L22
 154:Interrupt_Routines.c ****                             prev_state=status;
 369              		.loc 1 154 0
 370 01b2 194E     		ldr	r6, .L28
 371 01b4 3278     		ldrb	r2, [r6]	@ zero_extendqisi2
 372 01b6 194B     		ldr	r3, .L28+4
 373 01b8 1A71     		strb	r2, [r3, #4]
 155:Interrupt_Routines.c ****                             sprintf(mex, "Switch to Configuration Mode \r\n");
 374              		.loc 1 155 0
 375 01ba 194D     		ldr	r5, .L28+8
 376 01bc 1B4C     		ldr	r4, .L28+20
 377 01be 0FCC     		ldmia	r4!, {r0, r1, r2, r3}
 378 01c0 2860     		str	r0, [r5]	@ unaligned
 379 01c2 6960     		str	r1, [r5, #4]	@ unaligned
 380 01c4 AA60     		str	r2, [r5, #8]	@ unaligned
 381 01c6 EB60     		str	r3, [r5, #12]	@ unaligned
 382 01c8 0FCC     		ldmia	r4!, {r0, r1, r2, r3}
 383 01ca 2861     		str	r0, [r5, #16]	@ unaligned
 384 01cc 6961     		str	r1, [r5, #20]	@ unaligned
 385 01ce AA61     		str	r2, [r5, #24]	@ unaligned
 386 01d0 EB61     		str	r3, [r5, #28]	@ unaligned
 156:Interrupt_Routines.c ****                             UART_Debug_PutString(mex);
 387              		.loc 1 156 0
 388 01d2 2846     		mov	r0, r5
 389 01d4 FFF7FEFF 		bl	UART_Debug_PutString
 390              	.LVL14:
 157:Interrupt_Routines.c ****                             repetition=0;
 391              		.loc 1 157 0
 392 01d8 0022     		movs	r2, #0
 393 01da 134B     		ldr	r3, .L28+16
 394 01dc 1A70     		strb	r2, [r3]
 158:Interrupt_Routines.c ****                             status=2;
 395              		.loc 1 158 0
 396 01de 0223     		movs	r3, #2
 397 01e0 3370     		strb	r3, [r6]
 398 01e2 14E0     		b	.L23
 399              	.L22:
 159:Interrupt_Routines.c ****                             
 160:Interrupt_Routines.c ****                         
 161:Interrupt_Routines.c ****                         }
 162:Interrupt_Routines.c ****                         else if (counter_button==2){
 400              		.loc 1 162 0
 401 01e4 0D4B     		ldr	r3, .L28+4
 402 01e6 1B88     		ldrh	r3, [r3]
 403 01e8 9BB2     		uxth	r3, r3
 404 01ea 022B     		cmp	r3, #2
 405 01ec 0FD1     		bne	.L23
 163:Interrupt_Routines.c ****                             sprintf(mex, "Switch OFF \r\n");
 406              		.loc 1 163 0
 407 01ee 0C4C     		ldr	r4, .L28+8
ARM GAS  C:\Users\Riccardo\AppData\Local\Temp\ccjNcLE2.s 			page 11


 408 01f0 164B     		ldr	r3, .L28+52
 409 01f2 07CB     		ldmia	r3!, {r0, r1, r2}
 410 01f4 2060     		str	r0, [r4]	@ unaligned
 411 01f6 6160     		str	r1, [r4, #4]	@ unaligned
 412 01f8 A260     		str	r2, [r4, #8]	@ unaligned
 413 01fa 1B88     		ldrh	r3, [r3]	@ unaligned
 414 01fc A381     		strh	r3, [r4, #12]	@ unaligned
 164:Interrupt_Routines.c ****                             UART_Debug_PutString(mex);
 415              		.loc 1 164 0
 416 01fe 2046     		mov	r0, r4
 417 0200 FFF7FEFF 		bl	UART_Debug_PutString
 418              	.LVL15:
 165:Interrupt_Routines.c ****                             repetition=0;
 419              		.loc 1 165 0
 420 0204 0023     		movs	r3, #0
 421 0206 084A     		ldr	r2, .L28+16
 422 0208 1370     		strb	r3, [r2]
 166:Interrupt_Routines.c ****                             status=0;
 423              		.loc 1 166 0
 424 020a 034A     		ldr	r2, .L28
 425 020c 1370     		strb	r3, [r2]
 426              	.L23:
 167:Interrupt_Routines.c ****                             
 168:Interrupt_Routines.c ****                             
 169:Interrupt_Routines.c ****                         }
 170:Interrupt_Routines.c ****                         
 171:Interrupt_Routines.c ****                         counter_button=0;
 427              		.loc 1 171 0
 428 020e 034B     		ldr	r3, .L28+4
 429 0210 0022     		movs	r2, #0
 430 0212 1A80     		strh	r2, [r3]	@ movhi
 172:Interrupt_Routines.c ****                         timer_counter=0;
 431              		.loc 1 172 0
 432 0214 5A80     		strh	r2, [r3, #2]	@ movhi
 433 0216 70BD     		pop	{r4, r5, r6, pc}
 434              	.L29:
 435              		.align	2
 436              	.L28:
 437 0218 00000000 		.word	status
 438 021c 00000000 		.word	.LANCHOR0
 439 0220 00000000 		.word	mex
 440 0224 18000000 		.word	.LC1
 441 0228 00000000 		.word	repetition
 442 022c 2C000000 		.word	.LC2
 443 0230 00000000 		.word	counter_blue
 444 0234 00000000 		.word	counter_green
 445 0238 00000000 		.word	counter_red
 446 023c 00000000 		.word	period_blue
 447 0240 00000000 		.word	period_green
 448 0244 00000000 		.word	period_red
 449 0248 00000000 		.word	timestamp
 450 024c 4C000000 		.word	.LC3
 451              	.L10:
 173:Interrupt_Routines.c ****                         
 174:Interrupt_Routines.c ****                         
 175:Interrupt_Routines.c ****                     }
 176:Interrupt_Routines.c ****                     
ARM GAS  C:\Users\Riccardo\AppData\Local\Temp\ccjNcLE2.s 			page 12


 177:Interrupt_Routines.c ****                     
 178:Interrupt_Routines.c ****                 }
 179:Interrupt_Routines.c ****                         
 180:Interrupt_Routines.c ****                         
 181:Interrupt_Routines.c ****         break;
 182:Interrupt_Routines.c ****         case 2:
 183:Interrupt_Routines.c ****                 
 184:Interrupt_Routines.c ****                 
 185:Interrupt_Routines.c ****                 counter_int_led--;
 452              		.loc 1 185 0
 453 0250 2C4A     		ldr	r2, .L30
 454 0252 1388     		ldrh	r3, [r2]
 455 0254 9BB2     		uxth	r3, r3
 456 0256 013B     		subs	r3, r3, #1
 457 0258 9BB2     		uxth	r3, r3
 458 025a 1380     		strh	r3, [r2]	@ movhi
 186:Interrupt_Routines.c ****                 counter_blue--;
 459              		.loc 1 186 0
 460 025c 2A4A     		ldr	r2, .L30+4
 461 025e 1388     		ldrh	r3, [r2]
 462 0260 9BB2     		uxth	r3, r3
 463 0262 013B     		subs	r3, r3, #1
 464 0264 9BB2     		uxth	r3, r3
 465 0266 1380     		strh	r3, [r2]	@ movhi
 187:Interrupt_Routines.c ****                 timestamp++;
 466              		.loc 1 187 0
 467 0268 284A     		ldr	r2, .L30+8
 468 026a 1368     		ldr	r3, [r2]
 469 026c 0133     		adds	r3, r3, #1
 470 026e 1360     		str	r3, [r2]
 188:Interrupt_Routines.c ****                 
 189:Interrupt_Routines.c ****                 
 190:Interrupt_Routines.c ****                 
 191:Interrupt_Routines.c ****                 if (counter_button!=0){
 471              		.loc 1 191 0
 472 0270 274B     		ldr	r3, .L30+12
 473 0272 1B88     		ldrh	r3, [r3]
 474 0274 9BB2     		uxth	r3, r3
 475 0276 23B3     		cbz	r3, .L24
 192:Interrupt_Routines.c ****                     timer_counter++;
 476              		.loc 1 192 0
 477 0278 254A     		ldr	r2, .L30+12
 478 027a 5388     		ldrh	r3, [r2, #2]
 479 027c 0133     		adds	r3, r3, #1
 480 027e 9BB2     		uxth	r3, r3
 481 0280 5380     		strh	r3, [r2, #2]	@ movhi
 193:Interrupt_Routines.c ****                     if (timer_counter>1000){
 482              		.loc 1 193 0
 483 0282 B3F57A7F 		cmp	r3, #1000
 484 0286 1CD9     		bls	.L24
 194:Interrupt_Routines.c ****                         
 195:Interrupt_Routines.c ****                         
 196:Interrupt_Routines.c ****                         
 197:Interrupt_Routines.c ****                         if (counter_button>3){
 485              		.loc 1 197 0
 486 0288 1388     		ldrh	r3, [r2]
 487 028a 9BB2     		uxth	r3, r3
ARM GAS  C:\Users\Riccardo\AppData\Local\Temp\ccjNcLE2.s 			page 13


 488 028c 032B     		cmp	r3, #3
 489 028e 14D9     		bls	.L25
 198:Interrupt_Routines.c ****                             sprintf(mex, "Switch to ON Mode \r\n");
 490              		.loc 1 198 0
 491 0290 204D     		ldr	r5, .L30+16
 492 0292 214C     		ldr	r4, .L30+20
 493 0294 0FCC     		ldmia	r4!, {r0, r1, r2, r3}
 494 0296 2860     		str	r0, [r5]	@ unaligned
 495 0298 6960     		str	r1, [r5, #4]	@ unaligned
 496 029a AA60     		str	r2, [r5, #8]	@ unaligned
 497 029c EB60     		str	r3, [r5, #12]	@ unaligned
 498 029e 2068     		ldr	r0, [r4]	@ unaligned
 499 02a0 2861     		str	r0, [r5, #16]	@ unaligned
 500 02a2 2379     		ldrb	r3, [r4, #4]	@ zero_extendqisi2
 501 02a4 2B75     		strb	r3, [r5, #20]
 199:Interrupt_Routines.c ****                             repetition=0;
 502              		.loc 1 199 0
 503 02a6 0022     		movs	r2, #0
 504 02a8 1C4B     		ldr	r3, .L30+24
 505 02aa 1A70     		strb	r2, [r3]
 200:Interrupt_Routines.c ****                             UART_Debug_PutString(mex);
 506              		.loc 1 200 0
 507 02ac 2846     		mov	r0, r5
 508 02ae FFF7FEFF 		bl	UART_Debug_PutString
 509              	.LVL16:
 201:Interrupt_Routines.c ****                             status= prev_state;
 510              		.loc 1 201 0
 511 02b2 174B     		ldr	r3, .L30+12
 512 02b4 1A79     		ldrb	r2, [r3, #4]	@ zero_extendqisi2
 513 02b6 1A4B     		ldr	r3, .L30+28
 514 02b8 1A70     		strb	r2, [r3]
 515              	.L25:
 202:Interrupt_Routines.c **** 
 203:Interrupt_Routines.c ****                         
 204:Interrupt_Routines.c ****                         }
 205:Interrupt_Routines.c ****                         
 206:Interrupt_Routines.c ****                         
 207:Interrupt_Routines.c ****                         counter_button=0;
 516              		.loc 1 207 0
 517 02ba 154B     		ldr	r3, .L30+12
 518 02bc 0022     		movs	r2, #0
 519 02be 1A80     		strh	r2, [r3]	@ movhi
 208:Interrupt_Routines.c ****                         timer_counter=0;
 520              		.loc 1 208 0
 521 02c0 5A80     		strh	r2, [r3, #2]	@ movhi
 522              	.L24:
 209:Interrupt_Routines.c ****                          
 210:Interrupt_Routines.c ****                     }
 211:Interrupt_Routines.c ****                 }
 212:Interrupt_Routines.c ****                 /********************* INTERNAL LED ******************/
 213:Interrupt_Routines.c ****                 /* If the counter variable goes to 0, the Blue channel must be toggled*/
 214:Interrupt_Routines.c ****                 if (counter_int_led==0)
 523              		.loc 1 214 0
 524 02c2 104B     		ldr	r3, .L30
 525 02c4 1B88     		ldrh	r3, [r3]
 526 02c6 9BB2     		uxth	r3, r3
 527 02c8 63B9     		cbnz	r3, .L26
ARM GAS  C:\Users\Riccardo\AppData\Local\Temp\ccjNcLE2.s 			page 14


 215:Interrupt_Routines.c ****                     {
 216:Interrupt_Routines.c ****                         ADC_flag=1;
 528              		.loc 1 216 0
 529 02ca 0122     		movs	r2, #1
 530 02cc 154B     		ldr	r3, .L30+32
 531 02ce 1A70     		strb	r2, [r3]
 217:Interrupt_Routines.c ****                         /* Toggle the Led only if the period set is lower than the THR_OFF */
 218:Interrupt_Routines.c ****                         INT_Led_Write(~INT_Led_Read());
 532              		.loc 1 218 0
 533 02d0 FFF7FEFF 		bl	INT_Led_Read
 534              	.LVL17:
 535 02d4 C043     		mvns	r0, r0
 536 02d6 C0B2     		uxtb	r0, r0
 537 02d8 FFF7FEFF 		bl	INT_Led_Write
 538              	.LVL18:
 219:Interrupt_Routines.c ****                         /* Reset the counter to the period value */
 220:Interrupt_Routines.c ****                         counter_int_led = period_int_led;
 539              		.loc 1 220 0
 540 02dc 124B     		ldr	r3, .L30+36
 541 02de 1B78     		ldrb	r3, [r3]	@ zero_extendqisi2
 542 02e0 084A     		ldr	r2, .L30
 543 02e2 1380     		strh	r3, [r2]	@ movhi
 544              	.L26:
 221:Interrupt_Routines.c ****                     }
 222:Interrupt_Routines.c ****     
 223:Interrupt_Routines.c ****                 
 224:Interrupt_Routines.c **** 
 225:Interrupt_Routines.c ****     
 226:Interrupt_Routines.c ****                 /********************* BLUE LED ******************/
 227:Interrupt_Routines.c ****                 /* If the counter variable goes to 0, the Blue channel must be toggled*/
 228:Interrupt_Routines.c ****                 if (counter_blue==0)
 545              		.loc 1 228 0
 546 02e4 084B     		ldr	r3, .L30+4
 547 02e6 1B88     		ldrh	r3, [r3]
 548 02e8 9BB2     		uxth	r3, r3
 549 02ea 53B9     		cbnz	r3, .L6
 229:Interrupt_Routines.c ****                     {
 230:Interrupt_Routines.c ****                         BLUE_Led_Write(~BLUE_Led_Read());
 550              		.loc 1 230 0
 551 02ec FFF7FEFF 		bl	BLUE_Led_Read
 552              	.LVL19:
 553 02f0 C043     		mvns	r0, r0
 554 02f2 C0B2     		uxtb	r0, r0
 555 02f4 FFF7FEFF 		bl	BLUE_Led_Write
 556              	.LVL20:
 231:Interrupt_Routines.c ****                         /* Reset the counter to the period value */
 232:Interrupt_Routines.c ****                         counter_blue = period_blue;
 557              		.loc 1 232 0
 558 02f8 0C4B     		ldr	r3, .L30+40
 559 02fa 1B88     		ldrh	r3, [r3]
 560 02fc 9BB2     		uxth	r3, r3
 561 02fe 024A     		ldr	r2, .L30+4
 562 0300 1380     		strh	r3, [r2]	@ movhi
 563              	.L6:
 564 0302 70BD     		pop	{r4, r5, r6, pc}
 565              	.L31:
 566              		.align	2
ARM GAS  C:\Users\Riccardo\AppData\Local\Temp\ccjNcLE2.s 			page 15


 567              	.L30:
 568 0304 00000000 		.word	counter_int_led
 569 0308 00000000 		.word	counter_blue
 570 030c 00000000 		.word	timestamp
 571 0310 00000000 		.word	.LANCHOR0
 572 0314 00000000 		.word	mex
 573 0318 5C000000 		.word	.LC4
 574 031c 00000000 		.word	repetition
 575 0320 00000000 		.word	status
 576 0324 00000000 		.word	ADC_flag
 577 0328 00000000 		.word	period_int_led
 578 032c 00000000 		.word	period_blue
 579              		.cfi_endproc
 580              	.LFE65:
 581              		.size	ISR_TIMER, .-ISR_TIMER
 582              		.section	.text.ISR_COUNTER_BUTTON,"ax",%progbits
 583              		.align	2
 584              		.global	ISR_COUNTER_BUTTON
 585              		.thumb
 586              		.thumb_func
 587              		.type	ISR_COUNTER_BUTTON, %function
 588              	ISR_COUNTER_BUTTON:
 589              	.LFB66:
 233:Interrupt_Routines.c ****                     }
 234:Interrupt_Routines.c ****     
 235:Interrupt_Routines.c ****                 
 236:Interrupt_Routines.c ****                 
 237:Interrupt_Routines.c ****      
 238:Interrupt_Routines.c ****     
 239:Interrupt_Routines.c ****                 
 240:Interrupt_Routines.c ****                 
 241:Interrupt_Routines.c ****                 
 242:Interrupt_Routines.c ****         break;
 243:Interrupt_Routines.c ****     
 244:Interrupt_Routines.c ****     }
 245:Interrupt_Routines.c **** }
 246:Interrupt_Routines.c **** 
 247:Interrupt_Routines.c **** 
 248:Interrupt_Routines.c ****  CY_ISR(ISR_COUNTER_BUTTON)
 249:Interrupt_Routines.c **** {
 590              		.loc 1 249 0
 591              		.cfi_startproc
 592              		@ args = 0, pretend = 0, frame = 0
 593              		@ frame_needed = 0, uses_anonymous_args = 0
 594 0000 38B5     		push	{r3, r4, r5, lr}
 595              		.cfi_def_cfa_offset 16
 596              		.cfi_offset 3, -16
 597              		.cfi_offset 4, -12
 598              		.cfi_offset 5, -8
 599              		.cfi_offset 14, -4
 250:Interrupt_Routines.c ****     Timer_Button_ReadStatusRegister();
 600              		.loc 1 250 0
 601 0002 FFF7FEFF 		bl	Timer_Button_ReadStatusRegister
 602              	.LVL21:
 251:Interrupt_Routines.c ****     counter_button++;
 603              		.loc 1 251 0
 604 0006 094A     		ldr	r2, .L34
ARM GAS  C:\Users\Riccardo\AppData\Local\Temp\ccjNcLE2.s 			page 16


 605 0008 1388     		ldrh	r3, [r2]
 606 000a 9BB2     		uxth	r3, r3
 607 000c 0133     		adds	r3, r3, #1
 608 000e 9BB2     		uxth	r3, r3
 609 0010 1380     		strh	r3, [r2]	@ movhi
 252:Interrupt_Routines.c ****     
 253:Interrupt_Routines.c ****     sprintf(mex, "Button Pressed \r\n");
 610              		.loc 1 253 0
 611 0012 074D     		ldr	r5, .L34+4
 612 0014 074C     		ldr	r4, .L34+8
 613 0016 0FCC     		ldmia	r4!, {r0, r1, r2, r3}
 614 0018 2860     		str	r0, [r5]	@ unaligned
 615 001a 6960     		str	r1, [r5, #4]	@ unaligned
 616 001c AA60     		str	r2, [r5, #8]	@ unaligned
 617 001e EB60     		str	r3, [r5, #12]	@ unaligned
 618 0020 2388     		ldrh	r3, [r4]	@ unaligned
 619 0022 2B82     		strh	r3, [r5, #16]	@ unaligned
 254:Interrupt_Routines.c ****     UART_Debug_PutString(mex);
 620              		.loc 1 254 0
 621 0024 2846     		mov	r0, r5
 622 0026 FFF7FEFF 		bl	UART_Debug_PutString
 623              	.LVL22:
 624 002a 38BD     		pop	{r3, r4, r5, pc}
 625              	.L35:
 626              		.align	2
 627              	.L34:
 628 002c 00000000 		.word	.LANCHOR0
 629 0030 00000000 		.word	mex
 630 0034 74000000 		.word	.LC5
 631              		.cfi_endproc
 632              	.LFE66:
 633              		.size	ISR_COUNTER_BUTTON, .-ISR_COUNTER_BUTTON
 634              		.comm	mex,50,4
 635              		.global	timer_counter
 636              		.global	counter_button
 637              		.global	prev_state
 638              		.comm	int1_src_reg,1,1
 639              		.comm	watermark,1,1
 640              		.comm	error,1,1
 641              		.comm	timestamp,4,4
 642              		.comm	flag_eeprom,1,1
 643              		.comm	counter_int_led,2,2
 644              		.comm	counter_blue,2,2
 645              		.comm	counter_green,2,2
 646              		.comm	counter_red,2,2
 647              		.comm	period_int_led,1,1
 648              		.comm	period_blue,2,2
 649              		.comm	period_green,2,2
 650              		.comm	period_red,2,2
 651              		.comm	repetition,1,1
 652              		.comm	ADC_flag,1,1
 653              		.comm	status,1,1
 654              		.comm	OVR_FLAG,1,1
 655              		.section	.rodata.str1.4,"aMS",%progbits,1
 656              		.align	2
 657              	.LC0:
 658 0000 4F766572 		.ascii	"Overthreshold event \015\012\000"
ARM GAS  C:\Users\Riccardo\AppData\Local\Temp\ccjNcLE2.s 			page 17


 658      74687265 
 658      73686F6C 
 658      64206576 
 658      656E7420 
 659 0017 00       		.space	1
 660              	.LC1:
 661 0018 53776974 		.ascii	"Switch ON device \015\012\000"
 661      6368204F 
 661      4E206465 
 661      76696365 
 661      200D0A00 
 662              	.LC2:
 663 002c 53776974 		.ascii	"Switch to Configuration Mode \015\012\000"
 663      63682074 
 663      6F20436F 
 663      6E666967 
 663      75726174 
 664              	.LC3:
 665 004c 53776974 		.ascii	"Switch OFF \015\012\000"
 665      6368204F 
 665      4646200D 
 665      0A00
 666 005a 0000     		.space	2
 667              	.LC4:
 668 005c 53776974 		.ascii	"Switch to ON Mode \015\012\000"
 668      63682074 
 668      6F204F4E 
 668      204D6F64 
 668      65200D0A 
 669 0071 000000   		.space	3
 670              	.LC5:
 671 0074 42757474 		.ascii	"Button Pressed \015\012\000"
 671      6F6E2050 
 671      72657373 
 671      6564200D 
 671      0A00
 672              		.bss
 673              		.align	1
 674              		.set	.LANCHOR0,. + 0
 675              		.type	counter_button, %object
 676              		.size	counter_button, 2
 677              	counter_button:
 678 0000 0000     		.space	2
 679              		.type	timer_counter, %object
 680              		.size	timer_counter, 2
 681              	timer_counter:
 682 0002 0000     		.space	2
 683              		.type	prev_state, %object
 684              		.size	prev_state, 1
 685              	prev_state:
 686 0004 00       		.space	1
 687              		.text
 688              	.Letext0:
 689              		.file 2 "c:\\program files (x86)\\cypress\\psoc creator\\4.3\\psoc creator\\import\\gnu\\arm\\5.4.
 690              		.file 3 "c:\\program files (x86)\\cypress\\psoc creator\\4.3\\psoc creator\\import\\gnu\\arm\\5.4.
 691              		.file 4 "Generated_Source\\PSoC5/core_cm3.h"
 692              		.file 5 "Interrupt_Routines.h"
ARM GAS  C:\Users\Riccardo\AppData\Local\Temp\ccjNcLE2.s 			page 18


 693              		.file 6 "I2C_Interface.h"
 694              		.file 7 "Generated_Source\\PSoC5/UART_Debug.h"
 695              		.file 8 "Generated_Source\\PSoC5/Timer.h"
 696              		.file 9 "Generated_Source\\PSoC5/BLUE_Led.h"
 697              		.file 10 "Generated_Source\\PSoC5/GREEN_Led.h"
 698              		.file 11 "Generated_Source\\PSoC5/RED_Led.h"
 699              		.file 12 "Generated_Source\\PSoC5/INT_Led.h"
 700              		.file 13 "Generated_Source\\PSoC5/Timer_Button.h"
 701              		.section	.debug_info,"",%progbits
 702              	.Ldebug_info0:
 703 0000 86040000 		.4byte	0x486
 704 0004 0400     		.2byte	0x4
 705 0006 00000000 		.4byte	.Ldebug_abbrev0
 706 000a 04       		.byte	0x4
 707 000b 01       		.uleb128 0x1
 708 000c 60010000 		.4byte	.LASF58
 709 0010 0C       		.byte	0xc
 710 0011 18000000 		.4byte	.LASF59
 711 0015 44000000 		.4byte	.LASF60
 712 0019 00000000 		.4byte	.Ldebug_ranges0+0
 713 001d 00000000 		.4byte	0
 714 0021 00000000 		.4byte	.Ldebug_line0
 715 0025 02       		.uleb128 0x2
 716 0026 01       		.byte	0x1
 717 0027 06       		.byte	0x6
 718 0028 A9030000 		.4byte	.LASF0
 719 002c 03       		.uleb128 0x3
 720 002d 3A000000 		.4byte	.LASF3
 721 0031 02       		.byte	0x2
 722 0032 1D       		.byte	0x1d
 723 0033 37000000 		.4byte	0x37
 724 0037 02       		.uleb128 0x2
 725 0038 01       		.byte	0x1
 726 0039 08       		.byte	0x8
 727 003a 52010000 		.4byte	.LASF1
 728 003e 02       		.uleb128 0x2
 729 003f 02       		.byte	0x2
 730 0040 05       		.byte	0x5
 731 0041 7B020000 		.4byte	.LASF2
 732 0045 03       		.uleb128 0x3
 733 0046 43020000 		.4byte	.LASF4
 734 004a 02       		.byte	0x2
 735 004b 2B       		.byte	0x2b
 736 004c 50000000 		.4byte	0x50
 737 0050 02       		.uleb128 0x2
 738 0051 02       		.byte	0x2
 739 0052 07       		.byte	0x7
 740 0053 E0000000 		.4byte	.LASF5
 741 0057 03       		.uleb128 0x3
 742 0058 BD000000 		.4byte	.LASF6
 743 005c 02       		.byte	0x2
 744 005d 3F       		.byte	0x3f
 745 005e 62000000 		.4byte	0x62
 746 0062 02       		.uleb128 0x2
 747 0063 04       		.byte	0x4
 748 0064 05       		.byte	0x5
 749 0065 94030000 		.4byte	.LASF7
ARM GAS  C:\Users\Riccardo\AppData\Local\Temp\ccjNcLE2.s 			page 19


 750 0069 03       		.uleb128 0x3
 751 006a FB000000 		.4byte	.LASF8
 752 006e 02       		.byte	0x2
 753 006f 41       		.byte	0x41
 754 0070 74000000 		.4byte	0x74
 755 0074 02       		.uleb128 0x2
 756 0075 04       		.byte	0x4
 757 0076 07       		.byte	0x7
 758 0077 A2020000 		.4byte	.LASF9
 759 007b 02       		.uleb128 0x2
 760 007c 08       		.byte	0x8
 761 007d 05       		.byte	0x5
 762 007e 20030000 		.4byte	.LASF10
 763 0082 02       		.uleb128 0x2
 764 0083 08       		.byte	0x8
 765 0084 07       		.byte	0x7
 766 0085 C1020000 		.4byte	.LASF11
 767 0089 04       		.uleb128 0x4
 768 008a 04       		.byte	0x4
 769 008b 05       		.byte	0x5
 770 008c 696E7400 		.ascii	"int\000"
 771 0090 02       		.uleb128 0x2
 772 0091 04       		.byte	0x4
 773 0092 07       		.byte	0x7
 774 0093 B4020000 		.4byte	.LASF12
 775 0097 03       		.uleb128 0x3
 776 0098 F3000000 		.4byte	.LASF13
 777 009c 03       		.byte	0x3
 778 009d 18       		.byte	0x18
 779 009e 2C000000 		.4byte	0x2c
 780 00a2 03       		.uleb128 0x3
 781 00a3 72030000 		.4byte	.LASF14
 782 00a7 03       		.byte	0x3
 783 00a8 24       		.byte	0x24
 784 00a9 45000000 		.4byte	0x45
 785 00ad 03       		.uleb128 0x3
 786 00ae 09030000 		.4byte	.LASF15
 787 00b2 03       		.byte	0x3
 788 00b3 2C       		.byte	0x2c
 789 00b4 57000000 		.4byte	0x57
 790 00b8 03       		.uleb128 0x3
 791 00b9 8B030000 		.4byte	.LASF16
 792 00bd 03       		.byte	0x3
 793 00be 30       		.byte	0x30
 794 00bf 69000000 		.4byte	0x69
 795 00c3 02       		.uleb128 0x2
 796 00c4 04       		.byte	0x4
 797 00c5 04       		.byte	0x4
 798 00c6 31010000 		.4byte	.LASF17
 799 00ca 02       		.uleb128 0x2
 800 00cb 08       		.byte	0x8
 801 00cc 04       		.byte	0x4
 802 00cd 06010000 		.4byte	.LASF18
 803 00d1 02       		.uleb128 0x2
 804 00d2 01       		.byte	0x1
 805 00d3 08       		.byte	0x8
 806 00d4 2E030000 		.4byte	.LASF19
ARM GAS  C:\Users\Riccardo\AppData\Local\Temp\ccjNcLE2.s 			page 20


 807 00d8 02       		.uleb128 0x2
 808 00d9 08       		.byte	0x8
 809 00da 04       		.byte	0x4
 810 00db 9D030000 		.4byte	.LASF20
 811 00df 02       		.uleb128 0x2
 812 00e0 04       		.byte	0x4
 813 00e1 07       		.byte	0x7
 814 00e2 11030000 		.4byte	.LASF21
 815 00e6 05       		.uleb128 0x5
 816 00e7 B8000000 		.4byte	0xb8
 817 00eb 05       		.uleb128 0x5
 818 00ec 97000000 		.4byte	0x97
 819 00f0 05       		.uleb128 0x5
 820 00f1 A2000000 		.4byte	0xa2
 821 00f5 06       		.uleb128 0x6
 822 00f6 4F030000 		.4byte	.LASF22
 823 00fa 01       		.byte	0x1
 824 00fb 21       		.byte	0x21
 825 00fc 00000000 		.4byte	.LFB64
 826 0100 60000000 		.4byte	.LFE64-.LFB64
 827 0104 01       		.uleb128 0x1
 828 0105 9C       		.byte	0x9c
 829 0106 3A010000 		.4byte	0x13a
 830 010a 07       		.uleb128 0x7
 831 010b 0E000000 		.4byte	.LVL0
 832 010f 05040000 		.4byte	0x405
 833 0113 29010000 		.4byte	0x129
 834 0117 08       		.uleb128 0x8
 835 0118 01       		.uleb128 0x1
 836 0119 50       		.byte	0x50
 837 011a 01       		.uleb128 0x1
 838 011b 48       		.byte	0x48
 839 011c 08       		.uleb128 0x8
 840 011d 01       		.uleb128 0x1
 841 011e 51       		.byte	0x51
 842 011f 02       		.uleb128 0x2
 843 0120 08       		.byte	0x8
 844 0121 31       		.byte	0x31
 845 0122 08       		.uleb128 0x8
 846 0123 01       		.uleb128 0x1
 847 0124 52       		.byte	0x52
 848 0125 02       		.uleb128 0x2
 849 0126 74       		.byte	0x74
 850 0127 00       		.sleb128 0
 851 0128 00       		.byte	0
 852 0129 09       		.uleb128 0x9
 853 012a 3A000000 		.4byte	.LVL1
 854 012e 10040000 		.4byte	0x410
 855 0132 08       		.uleb128 0x8
 856 0133 01       		.uleb128 0x1
 857 0134 50       		.byte	0x50
 858 0135 02       		.uleb128 0x2
 859 0136 75       		.byte	0x75
 860 0137 00       		.sleb128 0
 861 0138 00       		.byte	0
 862 0139 00       		.byte	0
 863 013a 06       		.uleb128 0x6
ARM GAS  C:\Users\Riccardo\AppData\Local\Temp\ccjNcLE2.s 			page 21


 864 013b 4E020000 		.4byte	.LASF23
 865 013f 01       		.byte	0x1
 866 0140 34       		.byte	0x34
 867 0141 00000000 		.4byte	.LFB65
 868 0145 30030000 		.4byte	.LFE65-.LFB65
 869 0149 01       		.uleb128 0x1
 870 014a 9C       		.byte	0x9c
 871 014b 50020000 		.4byte	0x250
 872 014f 0A       		.uleb128 0xa
 873 0150 06000000 		.4byte	.LVL2
 874 0154 1B040000 		.4byte	0x41b
 875 0158 07       		.uleb128 0x7
 876 0159 5E000000 		.4byte	.LVL3
 877 015d 10040000 		.4byte	0x410
 878 0161 6C010000 		.4byte	0x16c
 879 0165 08       		.uleb128 0x8
 880 0166 01       		.uleb128 0x1
 881 0167 50       		.byte	0x50
 882 0168 02       		.uleb128 0x2
 883 0169 75       		.byte	0x75
 884 016a 00       		.sleb128 0
 885 016b 00       		.byte	0
 886 016c 07       		.uleb128 0x7
 887 016d 9C000000 		.4byte	.LVL4
 888 0171 10040000 		.4byte	0x410
 889 0175 80010000 		.4byte	0x180
 890 0179 08       		.uleb128 0x8
 891 017a 01       		.uleb128 0x1
 892 017b 50       		.byte	0x50
 893 017c 02       		.uleb128 0x2
 894 017d 75       		.byte	0x75
 895 017e 00       		.sleb128 0
 896 017f 00       		.byte	0
 897 0180 0A       		.uleb128 0xa
 898 0181 E8000000 		.4byte	.LVL5
 899 0185 26040000 		.4byte	0x426
 900 0189 0A       		.uleb128 0xa
 901 018a F0000000 		.4byte	.LVL6
 902 018e 31040000 		.4byte	0x431
 903 0192 07       		.uleb128 0x7
 904 0193 0C010000 		.4byte	.LVL7
 905 0197 31040000 		.4byte	0x431
 906 019b A5010000 		.4byte	0x1a5
 907 019f 08       		.uleb128 0x8
 908 01a0 01       		.uleb128 0x1
 909 01a1 50       		.byte	0x50
 910 01a2 01       		.uleb128 0x1
 911 01a3 31       		.byte	0x31
 912 01a4 00       		.byte	0
 913 01a5 0A       		.uleb128 0xa
 914 01a6 24010000 		.4byte	.LVL8
 915 01aa 3C040000 		.4byte	0x43c
 916 01ae 0A       		.uleb128 0xa
 917 01af 2C010000 		.4byte	.LVL9
 918 01b3 47040000 		.4byte	0x447
 919 01b7 07       		.uleb128 0x7
 920 01b8 48010000 		.4byte	.LVL10
ARM GAS  C:\Users\Riccardo\AppData\Local\Temp\ccjNcLE2.s 			page 22


 921 01bc 47040000 		.4byte	0x447
 922 01c0 CA010000 		.4byte	0x1ca
 923 01c4 08       		.uleb128 0x8
 924 01c5 01       		.uleb128 0x1
 925 01c6 50       		.byte	0x50
 926 01c7 01       		.uleb128 0x1
 927 01c8 31       		.byte	0x31
 928 01c9 00       		.byte	0
 929 01ca 0A       		.uleb128 0xa
 930 01cb 60010000 		.4byte	.LVL11
 931 01cf 52040000 		.4byte	0x452
 932 01d3 0A       		.uleb128 0xa
 933 01d4 68010000 		.4byte	.LVL12
 934 01d8 5D040000 		.4byte	0x45d
 935 01dc 07       		.uleb128 0x7
 936 01dd 84010000 		.4byte	.LVL13
 937 01e1 5D040000 		.4byte	0x45d
 938 01e5 EF010000 		.4byte	0x1ef
 939 01e9 08       		.uleb128 0x8
 940 01ea 01       		.uleb128 0x1
 941 01eb 50       		.byte	0x50
 942 01ec 01       		.uleb128 0x1
 943 01ed 31       		.byte	0x31
 944 01ee 00       		.byte	0
 945 01ef 07       		.uleb128 0x7
 946 01f0 D8010000 		.4byte	.LVL14
 947 01f4 10040000 		.4byte	0x410
 948 01f8 03020000 		.4byte	0x203
 949 01fc 08       		.uleb128 0x8
 950 01fd 01       		.uleb128 0x1
 951 01fe 50       		.byte	0x50
 952 01ff 02       		.uleb128 0x2
 953 0200 75       		.byte	0x75
 954 0201 00       		.sleb128 0
 955 0202 00       		.byte	0
 956 0203 07       		.uleb128 0x7
 957 0204 04020000 		.4byte	.LVL15
 958 0208 10040000 		.4byte	0x410
 959 020c 17020000 		.4byte	0x217
 960 0210 08       		.uleb128 0x8
 961 0211 01       		.uleb128 0x1
 962 0212 50       		.byte	0x50
 963 0213 02       		.uleb128 0x2
 964 0214 74       		.byte	0x74
 965 0215 00       		.sleb128 0
 966 0216 00       		.byte	0
 967 0217 07       		.uleb128 0x7
 968 0218 B2020000 		.4byte	.LVL16
 969 021c 10040000 		.4byte	0x410
 970 0220 2B020000 		.4byte	0x22b
 971 0224 08       		.uleb128 0x8
 972 0225 01       		.uleb128 0x1
 973 0226 50       		.byte	0x50
 974 0227 02       		.uleb128 0x2
 975 0228 75       		.byte	0x75
 976 0229 00       		.sleb128 0
 977 022a 00       		.byte	0
ARM GAS  C:\Users\Riccardo\AppData\Local\Temp\ccjNcLE2.s 			page 23


 978 022b 0A       		.uleb128 0xa
 979 022c D4020000 		.4byte	.LVL17
 980 0230 68040000 		.4byte	0x468
 981 0234 0A       		.uleb128 0xa
 982 0235 DC020000 		.4byte	.LVL18
 983 0239 73040000 		.4byte	0x473
 984 023d 0A       		.uleb128 0xa
 985 023e F0020000 		.4byte	.LVL19
 986 0242 26040000 		.4byte	0x426
 987 0246 0A       		.uleb128 0xa
 988 0247 F8020000 		.4byte	.LVL20
 989 024b 31040000 		.4byte	0x431
 990 024f 00       		.byte	0
 991 0250 06       		.uleb128 0x6
 992 0251 0E020000 		.4byte	.LASF24
 993 0255 01       		.byte	0x1
 994 0256 F8       		.byte	0xf8
 995 0257 00000000 		.4byte	.LFB66
 996 025b 38000000 		.4byte	.LFE66-.LFB66
 997 025f 01       		.uleb128 0x1
 998 0260 9C       		.byte	0x9c
 999 0261 7F020000 		.4byte	0x27f
 1000 0265 0A       		.uleb128 0xa
 1001 0266 06000000 		.4byte	.LVL21
 1002 026a 7E040000 		.4byte	0x47e
 1003 026e 09       		.uleb128 0x9
 1004 026f 2A000000 		.4byte	.LVL22
 1005 0273 10040000 		.4byte	0x410
 1006 0277 08       		.uleb128 0x8
 1007 0278 01       		.uleb128 0x1
 1008 0279 50       		.byte	0x50
 1009 027a 02       		.uleb128 0x2
 1010 027b 75       		.byte	0x75
 1011 027c 00       		.sleb128 0
 1012 027d 00       		.byte	0
 1013 027e 00       		.byte	0
 1014 027f 0B       		.uleb128 0xb
 1015 0280 36020000 		.4byte	.LASF25
 1016 0284 04       		.byte	0x4
 1017 0285 1207     		.2byte	0x712
 1018 0287 8B020000 		.4byte	0x28b
 1019 028b 05       		.uleb128 0x5
 1020 028c AD000000 		.4byte	0xad
 1021 0290 0C       		.uleb128 0xc
 1022 0291 21020000 		.4byte	.LASF26
 1023 0295 05       		.byte	0x5
 1024 0296 1C       		.byte	0x1c
 1025 0297 EB000000 		.4byte	0xeb
 1026 029b 05       		.uleb128 0x5
 1027 029c 03       		.byte	0x3
 1028 029d 00000000 		.4byte	OVR_FLAG
 1029 02a1 0C       		.uleb128 0xc
 1030 02a2 8E000000 		.4byte	.LASF27
 1031 02a6 05       		.byte	0x5
 1032 02a7 1E       		.byte	0x1e
 1033 02a8 EB000000 		.4byte	0xeb
 1034 02ac 05       		.uleb128 0x5
ARM GAS  C:\Users\Riccardo\AppData\Local\Temp\ccjNcLE2.s 			page 24


 1035 02ad 03       		.byte	0x3
 1036 02ae 00000000 		.4byte	status
 1037 02b2 0C       		.uleb128 0xc
 1038 02b3 69030000 		.4byte	.LASF28
 1039 02b7 05       		.byte	0x5
 1040 02b8 20       		.byte	0x20
 1041 02b9 EB000000 		.4byte	0xeb
 1042 02bd 05       		.uleb128 0x5
 1043 02be 03       		.byte	0x3
 1044 02bf 00000000 		.4byte	ADC_flag
 1045 02c3 0C       		.uleb128 0xc
 1046 02c4 37010000 		.4byte	.LASF29
 1047 02c8 05       		.byte	0x5
 1048 02c9 22       		.byte	0x22
 1049 02ca EB000000 		.4byte	0xeb
 1050 02ce 05       		.uleb128 0x5
 1051 02cf 03       		.byte	0x3
 1052 02d0 00000000 		.4byte	repetition
 1053 02d4 0C       		.uleb128 0xc
 1054 02d5 A4000000 		.4byte	.LASF30
 1055 02d9 05       		.byte	0x5
 1056 02da 29       		.byte	0x29
 1057 02db F0000000 		.4byte	0xf0
 1058 02df 05       		.uleb128 0x5
 1059 02e0 03       		.byte	0x3
 1060 02e1 00000000 		.4byte	period_red
 1061 02e5 0C       		.uleb128 0xc
 1062 02e6 D1030000 		.4byte	.LASF31
 1063 02ea 05       		.byte	0x5
 1064 02eb 2A       		.byte	0x2a
 1065 02ec F0000000 		.4byte	0xf0
 1066 02f0 05       		.uleb128 0x5
 1067 02f1 03       		.byte	0x3
 1068 02f2 00000000 		.4byte	period_green
 1069 02f6 0C       		.uleb128 0xc
 1070 02f7 2A020000 		.4byte	.LASF32
 1071 02fb 05       		.byte	0x5
 1072 02fc 2B       		.byte	0x2b
 1073 02fd F0000000 		.4byte	0xf0
 1074 0301 05       		.uleb128 0x5
 1075 0302 03       		.byte	0x3
 1076 0303 00000000 		.4byte	period_blue
 1077 0307 0C       		.uleb128 0xc
 1078 0308 95000000 		.4byte	.LASF33
 1079 030c 05       		.byte	0x5
 1080 030d 2C       		.byte	0x2c
 1081 030e EB000000 		.4byte	0xeb
 1082 0312 05       		.uleb128 0x5
 1083 0313 03       		.byte	0x3
 1084 0314 00000000 		.4byte	period_int_led
 1085 0318 0C       		.uleb128 0xc
 1086 0319 D8020000 		.4byte	.LASF34
 1087 031d 05       		.byte	0x5
 1088 031e 2E       		.byte	0x2e
 1089 031f F0000000 		.4byte	0xf0
 1090 0323 05       		.uleb128 0x5
 1091 0324 03       		.byte	0x3
ARM GAS  C:\Users\Riccardo\AppData\Local\Temp\ccjNcLE2.s 			page 25


 1092 0325 00000000 		.4byte	counter_red
 1093 0329 0C       		.uleb128 0xc
 1094 032a 00000000 		.4byte	.LASF35
 1095 032e 05       		.byte	0x5
 1096 032f 2F       		.byte	0x2f
 1097 0330 F0000000 		.4byte	0xf0
 1098 0334 05       		.uleb128 0x5
 1099 0335 03       		.byte	0x3
 1100 0336 00000000 		.4byte	counter_green
 1101 033a 0C       		.uleb128 0xc
 1102 033b 17010000 		.4byte	.LASF36
 1103 033f 05       		.byte	0x5
 1104 0340 30       		.byte	0x30
 1105 0341 F0000000 		.4byte	0xf0
 1106 0345 05       		.uleb128 0x5
 1107 0346 03       		.byte	0x3
 1108 0347 00000000 		.4byte	counter_blue
 1109 034b 0C       		.uleb128 0xc
 1110 034c 42010000 		.4byte	.LASF37
 1111 0350 05       		.byte	0x5
 1112 0351 31       		.byte	0x31
 1113 0352 F0000000 		.4byte	0xf0
 1114 0356 05       		.uleb128 0x5
 1115 0357 03       		.byte	0x3
 1116 0358 00000000 		.4byte	counter_int_led
 1117 035c 0C       		.uleb128 0xc
 1118 035d FD020000 		.4byte	.LASF38
 1119 0361 05       		.byte	0x5
 1120 0362 33       		.byte	0x33
 1121 0363 EB000000 		.4byte	0xeb
 1122 0367 05       		.uleb128 0x5
 1123 0368 03       		.byte	0x3
 1124 0369 00000000 		.4byte	flag_eeprom
 1125 036d 0C       		.uleb128 0xc
 1126 036e 0E000000 		.4byte	.LASF39
 1127 0372 05       		.byte	0x5
 1128 0373 34       		.byte	0x34
 1129 0374 E6000000 		.4byte	0xe6
 1130 0378 05       		.uleb128 0x5
 1131 0379 03       		.byte	0x3
 1132 037a 00000000 		.4byte	timestamp
 1133 037e 0C       		.uleb128 0xc
 1134 037f 1A030000 		.4byte	.LASF40
 1135 0383 01       		.byte	0x1
 1136 0384 13       		.byte	0x13
 1137 0385 97000000 		.4byte	0x97
 1138 0389 05       		.uleb128 0x5
 1139 038a 03       		.byte	0x3
 1140 038b 00000000 		.4byte	error
 1141 038f 0C       		.uleb128 0xc
 1142 0390 0D010000 		.4byte	.LASF41
 1143 0394 01       		.byte	0x1
 1144 0395 14       		.byte	0x14
 1145 0396 97000000 		.4byte	0x97
 1146 039a 05       		.uleb128 0x5
 1147 039b 03       		.byte	0x3
 1148 039c 00000000 		.4byte	watermark
ARM GAS  C:\Users\Riccardo\AppData\Local\Temp\ccjNcLE2.s 			page 26


 1149 03a0 0C       		.uleb128 0xc
 1150 03a1 C4030000 		.4byte	.LASF42
 1151 03a5 01       		.byte	0x1
 1152 03a6 15       		.byte	0x15
 1153 03a7 97000000 		.4byte	0x97
 1154 03ab 05       		.uleb128 0x5
 1155 03ac 03       		.byte	0x3
 1156 03ad 00000000 		.4byte	int1_src_reg
 1157 03b1 0C       		.uleb128 0xc
 1158 03b2 F2020000 		.4byte	.LASF43
 1159 03b6 01       		.byte	0x1
 1160 03b7 16       		.byte	0x16
 1161 03b8 97000000 		.4byte	0x97
 1162 03bc 05       		.uleb128 0x5
 1163 03bd 03       		.byte	0x3
 1164 03be 00000000 		.4byte	prev_state
 1165 03c2 0C       		.uleb128 0xc
 1166 03c3 B5030000 		.4byte	.LASF44
 1167 03c7 01       		.byte	0x1
 1168 03c8 17       		.byte	0x17
 1169 03c9 F0000000 		.4byte	0xf0
 1170 03cd 05       		.uleb128 0x5
 1171 03ce 03       		.byte	0x3
 1172 03cf 00000000 		.4byte	counter_button
 1173 03d3 0C       		.uleb128 0xc
 1174 03d4 6D020000 		.4byte	.LASF45
 1175 03d8 01       		.byte	0x1
 1176 03d9 19       		.byte	0x19
 1177 03da A2000000 		.4byte	0xa2
 1178 03de 05       		.uleb128 0x5
 1179 03df 03       		.byte	0x3
 1180 03e0 00000000 		.4byte	timer_counter
 1181 03e4 0D       		.uleb128 0xd
 1182 03e5 D1000000 		.4byte	0xd1
 1183 03e9 F4030000 		.4byte	0x3f4
 1184 03ed 0E       		.uleb128 0xe
 1185 03ee DF000000 		.4byte	0xdf
 1186 03f2 31       		.byte	0x31
 1187 03f3 00       		.byte	0
 1188 03f4 0F       		.uleb128 0xf
 1189 03f5 6D657800 		.ascii	"mex\000"
 1190 03f9 01       		.byte	0x1
 1191 03fa 1D       		.byte	0x1d
 1192 03fb E4030000 		.4byte	0x3e4
 1193 03ff 05       		.uleb128 0x5
 1194 0400 03       		.byte	0x3
 1195 0401 00000000 		.4byte	mex
 1196 0405 10       		.uleb128 0x10
 1197 0406 33030000 		.4byte	.LASF46
 1198 040a 33030000 		.4byte	.LASF46
 1199 040e 06       		.byte	0x6
 1200 040f 1E       		.byte	0x1e
 1201 0410 10       		.uleb128 0x10
 1202 0411 58020000 		.4byte	.LASF47
 1203 0415 58020000 		.4byte	.LASF47
 1204 0419 07       		.byte	0x7
 1205 041a 8B       		.byte	0x8b
ARM GAS  C:\Users\Riccardo\AppData\Local\Temp\ccjNcLE2.s 			page 27


 1206 041b 10       		.uleb128 0x10
 1207 041c C7000000 		.4byte	.LASF48
 1208 0420 C7000000 		.4byte	.LASF48
 1209 0424 08       		.byte	0x8
 1210 0425 5E       		.byte	0x5e
 1211 0426 10       		.uleb128 0x10
 1212 0427 E4020000 		.4byte	.LASF49
 1213 042b E4020000 		.4byte	.LASF49
 1214 042f 09       		.byte	0x9
 1215 0430 29       		.byte	0x29
 1216 0431 10       		.uleb128 0x10
 1217 0432 DE030000 		.4byte	.LASF50
 1218 0436 DE030000 		.4byte	.LASF50
 1219 043a 09       		.byte	0x9
 1220 043b 26       		.byte	0x26
 1221 043c 10       		.uleb128 0x10
 1222 043d 85020000 		.4byte	.LASF51
 1223 0441 85020000 		.4byte	.LASF51
 1224 0445 0A       		.byte	0xa
 1225 0446 29       		.byte	0x29
 1226 0447 10       		.uleb128 0x10
 1227 0448 7B030000 		.4byte	.LASF52
 1228 044c 7B030000 		.4byte	.LASF52
 1229 0450 0A       		.byte	0xa
 1230 0451 26       		.byte	0x26
 1231 0452 10       		.uleb128 0x10
 1232 0453 24010000 		.4byte	.LASF53
 1233 0457 24010000 		.4byte	.LASF53
 1234 045b 0B       		.byte	0xb
 1235 045c 29       		.byte	0x29
 1236 045d 10       		.uleb128 0x10
 1237 045e AF000000 		.4byte	.LASF54
 1238 0462 AF000000 		.4byte	.LASF54
 1239 0466 0B       		.byte	0xb
 1240 0467 26       		.byte	0x26
 1241 0468 10       		.uleb128 0x10
 1242 0469 2D000000 		.4byte	.LASF55
 1243 046d 2D000000 		.4byte	.LASF55
 1244 0471 0C       		.byte	0xc
 1245 0472 29       		.byte	0x29
 1246 0473 10       		.uleb128 0x10
 1247 0474 94020000 		.4byte	.LASF56
 1248 0478 94020000 		.4byte	.LASF56
 1249 047c 0C       		.byte	0xc
 1250 047d 26       		.byte	0x26
 1251 047e 10       		.uleb128 0x10
 1252 047f EE010000 		.4byte	.LASF57
 1253 0483 EE010000 		.4byte	.LASF57
 1254 0487 0D       		.byte	0xd
 1255 0488 5E       		.byte	0x5e
 1256 0489 00       		.byte	0
 1257              		.section	.debug_abbrev,"",%progbits
 1258              	.Ldebug_abbrev0:
 1259 0000 01       		.uleb128 0x1
 1260 0001 11       		.uleb128 0x11
 1261 0002 01       		.byte	0x1
 1262 0003 25       		.uleb128 0x25
ARM GAS  C:\Users\Riccardo\AppData\Local\Temp\ccjNcLE2.s 			page 28


 1263 0004 0E       		.uleb128 0xe
 1264 0005 13       		.uleb128 0x13
 1265 0006 0B       		.uleb128 0xb
 1266 0007 03       		.uleb128 0x3
 1267 0008 0E       		.uleb128 0xe
 1268 0009 1B       		.uleb128 0x1b
 1269 000a 0E       		.uleb128 0xe
 1270 000b 55       		.uleb128 0x55
 1271 000c 17       		.uleb128 0x17
 1272 000d 11       		.uleb128 0x11
 1273 000e 01       		.uleb128 0x1
 1274 000f 10       		.uleb128 0x10
 1275 0010 17       		.uleb128 0x17
 1276 0011 00       		.byte	0
 1277 0012 00       		.byte	0
 1278 0013 02       		.uleb128 0x2
 1279 0014 24       		.uleb128 0x24
 1280 0015 00       		.byte	0
 1281 0016 0B       		.uleb128 0xb
 1282 0017 0B       		.uleb128 0xb
 1283 0018 3E       		.uleb128 0x3e
 1284 0019 0B       		.uleb128 0xb
 1285 001a 03       		.uleb128 0x3
 1286 001b 0E       		.uleb128 0xe
 1287 001c 00       		.byte	0
 1288 001d 00       		.byte	0
 1289 001e 03       		.uleb128 0x3
 1290 001f 16       		.uleb128 0x16
 1291 0020 00       		.byte	0
 1292 0021 03       		.uleb128 0x3
 1293 0022 0E       		.uleb128 0xe
 1294 0023 3A       		.uleb128 0x3a
 1295 0024 0B       		.uleb128 0xb
 1296 0025 3B       		.uleb128 0x3b
 1297 0026 0B       		.uleb128 0xb
 1298 0027 49       		.uleb128 0x49
 1299 0028 13       		.uleb128 0x13
 1300 0029 00       		.byte	0
 1301 002a 00       		.byte	0
 1302 002b 04       		.uleb128 0x4
 1303 002c 24       		.uleb128 0x24
 1304 002d 00       		.byte	0
 1305 002e 0B       		.uleb128 0xb
 1306 002f 0B       		.uleb128 0xb
 1307 0030 3E       		.uleb128 0x3e
 1308 0031 0B       		.uleb128 0xb
 1309 0032 03       		.uleb128 0x3
 1310 0033 08       		.uleb128 0x8
 1311 0034 00       		.byte	0
 1312 0035 00       		.byte	0
 1313 0036 05       		.uleb128 0x5
 1314 0037 35       		.uleb128 0x35
 1315 0038 00       		.byte	0
 1316 0039 49       		.uleb128 0x49
 1317 003a 13       		.uleb128 0x13
 1318 003b 00       		.byte	0
 1319 003c 00       		.byte	0
ARM GAS  C:\Users\Riccardo\AppData\Local\Temp\ccjNcLE2.s 			page 29


 1320 003d 06       		.uleb128 0x6
 1321 003e 2E       		.uleb128 0x2e
 1322 003f 01       		.byte	0x1
 1323 0040 3F       		.uleb128 0x3f
 1324 0041 19       		.uleb128 0x19
 1325 0042 03       		.uleb128 0x3
 1326 0043 0E       		.uleb128 0xe
 1327 0044 3A       		.uleb128 0x3a
 1328 0045 0B       		.uleb128 0xb
 1329 0046 3B       		.uleb128 0x3b
 1330 0047 0B       		.uleb128 0xb
 1331 0048 27       		.uleb128 0x27
 1332 0049 19       		.uleb128 0x19
 1333 004a 11       		.uleb128 0x11
 1334 004b 01       		.uleb128 0x1
 1335 004c 12       		.uleb128 0x12
 1336 004d 06       		.uleb128 0x6
 1337 004e 40       		.uleb128 0x40
 1338 004f 18       		.uleb128 0x18
 1339 0050 9742     		.uleb128 0x2117
 1340 0052 19       		.uleb128 0x19
 1341 0053 01       		.uleb128 0x1
 1342 0054 13       		.uleb128 0x13
 1343 0055 00       		.byte	0
 1344 0056 00       		.byte	0
 1345 0057 07       		.uleb128 0x7
 1346 0058 898201   		.uleb128 0x4109
 1347 005b 01       		.byte	0x1
 1348 005c 11       		.uleb128 0x11
 1349 005d 01       		.uleb128 0x1
 1350 005e 31       		.uleb128 0x31
 1351 005f 13       		.uleb128 0x13
 1352 0060 01       		.uleb128 0x1
 1353 0061 13       		.uleb128 0x13
 1354 0062 00       		.byte	0
 1355 0063 00       		.byte	0
 1356 0064 08       		.uleb128 0x8
 1357 0065 8A8201   		.uleb128 0x410a
 1358 0068 00       		.byte	0
 1359 0069 02       		.uleb128 0x2
 1360 006a 18       		.uleb128 0x18
 1361 006b 9142     		.uleb128 0x2111
 1362 006d 18       		.uleb128 0x18
 1363 006e 00       		.byte	0
 1364 006f 00       		.byte	0
 1365 0070 09       		.uleb128 0x9
 1366 0071 898201   		.uleb128 0x4109
 1367 0074 01       		.byte	0x1
 1368 0075 11       		.uleb128 0x11
 1369 0076 01       		.uleb128 0x1
 1370 0077 31       		.uleb128 0x31
 1371 0078 13       		.uleb128 0x13
 1372 0079 00       		.byte	0
 1373 007a 00       		.byte	0
 1374 007b 0A       		.uleb128 0xa
 1375 007c 898201   		.uleb128 0x4109
 1376 007f 00       		.byte	0
ARM GAS  C:\Users\Riccardo\AppData\Local\Temp\ccjNcLE2.s 			page 30


 1377 0080 11       		.uleb128 0x11
 1378 0081 01       		.uleb128 0x1
 1379 0082 31       		.uleb128 0x31
 1380 0083 13       		.uleb128 0x13
 1381 0084 00       		.byte	0
 1382 0085 00       		.byte	0
 1383 0086 0B       		.uleb128 0xb
 1384 0087 34       		.uleb128 0x34
 1385 0088 00       		.byte	0
 1386 0089 03       		.uleb128 0x3
 1387 008a 0E       		.uleb128 0xe
 1388 008b 3A       		.uleb128 0x3a
 1389 008c 0B       		.uleb128 0xb
 1390 008d 3B       		.uleb128 0x3b
 1391 008e 05       		.uleb128 0x5
 1392 008f 49       		.uleb128 0x49
 1393 0090 13       		.uleb128 0x13
 1394 0091 3F       		.uleb128 0x3f
 1395 0092 19       		.uleb128 0x19
 1396 0093 3C       		.uleb128 0x3c
 1397 0094 19       		.uleb128 0x19
 1398 0095 00       		.byte	0
 1399 0096 00       		.byte	0
 1400 0097 0C       		.uleb128 0xc
 1401 0098 34       		.uleb128 0x34
 1402 0099 00       		.byte	0
 1403 009a 03       		.uleb128 0x3
 1404 009b 0E       		.uleb128 0xe
 1405 009c 3A       		.uleb128 0x3a
 1406 009d 0B       		.uleb128 0xb
 1407 009e 3B       		.uleb128 0x3b
 1408 009f 0B       		.uleb128 0xb
 1409 00a0 49       		.uleb128 0x49
 1410 00a1 13       		.uleb128 0x13
 1411 00a2 3F       		.uleb128 0x3f
 1412 00a3 19       		.uleb128 0x19
 1413 00a4 02       		.uleb128 0x2
 1414 00a5 18       		.uleb128 0x18
 1415 00a6 00       		.byte	0
 1416 00a7 00       		.byte	0
 1417 00a8 0D       		.uleb128 0xd
 1418 00a9 01       		.uleb128 0x1
 1419 00aa 01       		.byte	0x1
 1420 00ab 49       		.uleb128 0x49
 1421 00ac 13       		.uleb128 0x13
 1422 00ad 01       		.uleb128 0x1
 1423 00ae 13       		.uleb128 0x13
 1424 00af 00       		.byte	0
 1425 00b0 00       		.byte	0
 1426 00b1 0E       		.uleb128 0xe
 1427 00b2 21       		.uleb128 0x21
 1428 00b3 00       		.byte	0
 1429 00b4 49       		.uleb128 0x49
 1430 00b5 13       		.uleb128 0x13
 1431 00b6 2F       		.uleb128 0x2f
 1432 00b7 0B       		.uleb128 0xb
 1433 00b8 00       		.byte	0
ARM GAS  C:\Users\Riccardo\AppData\Local\Temp\ccjNcLE2.s 			page 31


 1434 00b9 00       		.byte	0
 1435 00ba 0F       		.uleb128 0xf
 1436 00bb 34       		.uleb128 0x34
 1437 00bc 00       		.byte	0
 1438 00bd 03       		.uleb128 0x3
 1439 00be 08       		.uleb128 0x8
 1440 00bf 3A       		.uleb128 0x3a
 1441 00c0 0B       		.uleb128 0xb
 1442 00c1 3B       		.uleb128 0x3b
 1443 00c2 0B       		.uleb128 0xb
 1444 00c3 49       		.uleb128 0x49
 1445 00c4 13       		.uleb128 0x13
 1446 00c5 3F       		.uleb128 0x3f
 1447 00c6 19       		.uleb128 0x19
 1448 00c7 02       		.uleb128 0x2
 1449 00c8 18       		.uleb128 0x18
 1450 00c9 00       		.byte	0
 1451 00ca 00       		.byte	0
 1452 00cb 10       		.uleb128 0x10
 1453 00cc 2E       		.uleb128 0x2e
 1454 00cd 00       		.byte	0
 1455 00ce 3F       		.uleb128 0x3f
 1456 00cf 19       		.uleb128 0x19
 1457 00d0 3C       		.uleb128 0x3c
 1458 00d1 19       		.uleb128 0x19
 1459 00d2 6E       		.uleb128 0x6e
 1460 00d3 0E       		.uleb128 0xe
 1461 00d4 03       		.uleb128 0x3
 1462 00d5 0E       		.uleb128 0xe
 1463 00d6 3A       		.uleb128 0x3a
 1464 00d7 0B       		.uleb128 0xb
 1465 00d8 3B       		.uleb128 0x3b
 1466 00d9 0B       		.uleb128 0xb
 1467 00da 00       		.byte	0
 1468 00db 00       		.byte	0
 1469 00dc 00       		.byte	0
 1470              		.section	.debug_aranges,"",%progbits
 1471 0000 2C000000 		.4byte	0x2c
 1472 0004 0200     		.2byte	0x2
 1473 0006 00000000 		.4byte	.Ldebug_info0
 1474 000a 04       		.byte	0x4
 1475 000b 00       		.byte	0
 1476 000c 0000     		.2byte	0
 1477 000e 0000     		.2byte	0
 1478 0010 00000000 		.4byte	.LFB64
 1479 0014 60000000 		.4byte	.LFE64-.LFB64
 1480 0018 00000000 		.4byte	.LFB65
 1481 001c 30030000 		.4byte	.LFE65-.LFB65
 1482 0020 00000000 		.4byte	.LFB66
 1483 0024 38000000 		.4byte	.LFE66-.LFB66
 1484 0028 00000000 		.4byte	0
 1485 002c 00000000 		.4byte	0
 1486              		.section	.debug_ranges,"",%progbits
 1487              	.Ldebug_ranges0:
 1488 0000 00000000 		.4byte	.LFB64
 1489 0004 60000000 		.4byte	.LFE64
 1490 0008 00000000 		.4byte	.LFB65
ARM GAS  C:\Users\Riccardo\AppData\Local\Temp\ccjNcLE2.s 			page 32


 1491 000c 30030000 		.4byte	.LFE65
 1492 0010 00000000 		.4byte	.LFB66
 1493 0014 38000000 		.4byte	.LFE66
 1494 0018 00000000 		.4byte	0
 1495 001c 00000000 		.4byte	0
 1496              		.section	.debug_line,"",%progbits
 1497              	.Ldebug_line0:
 1498 0000 7B020000 		.section	.debug_str,"MS",%progbits,1
 1498      0200DC01 
 1498      00000201 
 1498      FB0E0D00 
 1498      01010101 
 1499              	.LASF35:
 1500 0000 636F756E 		.ascii	"counter_green\000"
 1500      7465725F 
 1500      67726565 
 1500      6E00
 1501              	.LASF39:
 1502 000e 74696D65 		.ascii	"timestamp\000"
 1502      7374616D 
 1502      7000
 1503              	.LASF59:
 1504 0018 496E7465 		.ascii	"Interrupt_Routines.c\000"
 1504      72727570 
 1504      745F526F 
 1504      7574696E 
 1504      65732E63 
 1505              	.LASF55:
 1506 002d 494E545F 		.ascii	"INT_Led_Read\000"
 1506      4C65645F 
 1506      52656164 
 1506      00
 1507              	.LASF3:
 1508 003a 5F5F7569 		.ascii	"__uint8_t\000"
 1508      6E74385F 
 1508      7400
 1509              	.LASF60:
 1510 0044 433A5C55 		.ascii	"C:\\Users\\Riccardo\\Desktop\\Final Project\\Final_"
 1510      73657273 
 1510      5C526963 
 1510      63617264 
 1510      6F5C4465 
 1511 0072 50726F6A 		.ascii	"Project\\Final_Project.cydsn\000"
 1511      6563745C 
 1511      46696E61 
 1511      6C5F5072 
 1511      6F6A6563 
 1512              	.LASF27:
 1513 008e 73746174 		.ascii	"status\000"
 1513      757300
 1514              	.LASF33:
 1515 0095 70657269 		.ascii	"period_int_led\000"
 1515      6F645F69 
 1515      6E745F6C 
 1515      656400
 1516              	.LASF30:
 1517 00a4 70657269 		.ascii	"period_red\000"
ARM GAS  C:\Users\Riccardo\AppData\Local\Temp\ccjNcLE2.s 			page 33


 1517      6F645F72 
 1517      656400
 1518              	.LASF54:
 1519 00af 5245445F 		.ascii	"RED_Led_Write\000"
 1519      4C65645F 
 1519      57726974 
 1519      6500
 1520              	.LASF6:
 1521 00bd 5F5F696E 		.ascii	"__int32_t\000"
 1521      7433325F 
 1521      7400
 1522              	.LASF48:
 1523 00c7 54696D65 		.ascii	"Timer_ReadStatusRegister\000"
 1523      725F5265 
 1523      61645374 
 1523      61747573 
 1523      52656769 
 1524              	.LASF5:
 1525 00e0 73686F72 		.ascii	"short unsigned int\000"
 1525      7420756E 
 1525      7369676E 
 1525      65642069 
 1525      6E7400
 1526              	.LASF13:
 1527 00f3 75696E74 		.ascii	"uint8_t\000"
 1527      385F7400 
 1528              	.LASF8:
 1529 00fb 5F5F7569 		.ascii	"__uint32_t\000"
 1529      6E743332 
 1529      5F7400
 1530              	.LASF18:
 1531 0106 646F7562 		.ascii	"double\000"
 1531      6C6500
 1532              	.LASF41:
 1533 010d 77617465 		.ascii	"watermark\000"
 1533      726D6172 
 1533      6B00
 1534              	.LASF36:
 1535 0117 636F756E 		.ascii	"counter_blue\000"
 1535      7465725F 
 1535      626C7565 
 1535      00
 1536              	.LASF53:
 1537 0124 5245445F 		.ascii	"RED_Led_Read\000"
 1537      4C65645F 
 1537      52656164 
 1537      00
 1538              	.LASF17:
 1539 0131 666C6F61 		.ascii	"float\000"
 1539      7400
 1540              	.LASF29:
 1541 0137 72657065 		.ascii	"repetition\000"
 1541      74697469 
 1541      6F6E00
 1542              	.LASF37:
 1543 0142 636F756E 		.ascii	"counter_int_led\000"
 1543      7465725F 
ARM GAS  C:\Users\Riccardo\AppData\Local\Temp\ccjNcLE2.s 			page 34


 1543      696E745F 
 1543      6C656400 
 1544              	.LASF1:
 1545 0152 756E7369 		.ascii	"unsigned char\000"
 1545      676E6564 
 1545      20636861 
 1545      7200
 1546              	.LASF58:
 1547 0160 474E5520 		.ascii	"GNU C11 5.4.1 20160609 (release) [ARM/embedded-5-br"
 1547      43313120 
 1547      352E342E 
 1547      31203230 
 1547      31363036 
 1548 0193 616E6368 		.ascii	"anch revision 237715] -mcpu=cortex-m3 -mthumb -g -O"
 1548      20726576 
 1548      6973696F 
 1548      6E203233 
 1548      37373135 
 1549 01c6 67202D66 		.ascii	"g -ffunction-sections -ffat-lto-objects\000"
 1549      66756E63 
 1549      74696F6E 
 1549      2D736563 
 1549      74696F6E 
 1550              	.LASF57:
 1551 01ee 54696D65 		.ascii	"Timer_Button_ReadStatusRegister\000"
 1551      725F4275 
 1551      74746F6E 
 1551      5F526561 
 1551      64537461 
 1552              	.LASF24:
 1553 020e 4953525F 		.ascii	"ISR_COUNTER_BUTTON\000"
 1553      434F554E 
 1553      5445525F 
 1553      42555454 
 1553      4F4E00
 1554              	.LASF26:
 1555 0221 4F56525F 		.ascii	"OVR_FLAG\000"
 1555      464C4147 
 1555      00
 1556              	.LASF32:
 1557 022a 70657269 		.ascii	"period_blue\000"
 1557      6F645F62 
 1557      6C756500 
 1558              	.LASF25:
 1559 0236 49544D5F 		.ascii	"ITM_RxBuffer\000"
 1559      52784275 
 1559      66666572 
 1559      00
 1560              	.LASF4:
 1561 0243 5F5F7569 		.ascii	"__uint16_t\000"
 1561      6E743136 
 1561      5F7400
 1562              	.LASF23:
 1563 024e 4953525F 		.ascii	"ISR_TIMER\000"
 1563      54494D45 
 1563      5200
 1564              	.LASF47:
ARM GAS  C:\Users\Riccardo\AppData\Local\Temp\ccjNcLE2.s 			page 35


 1565 0258 55415254 		.ascii	"UART_Debug_PutString\000"
 1565      5F446562 
 1565      75675F50 
 1565      75745374 
 1565      72696E67 
 1566              	.LASF45:
 1567 026d 74696D65 		.ascii	"timer_counter\000"
 1567      725F636F 
 1567      756E7465 
 1567      7200
 1568              	.LASF2:
 1569 027b 73686F72 		.ascii	"short int\000"
 1569      7420696E 
 1569      7400
 1570              	.LASF51:
 1571 0285 47524545 		.ascii	"GREEN_Led_Read\000"
 1571      4E5F4C65 
 1571      645F5265 
 1571      616400
 1572              	.LASF56:
 1573 0294 494E545F 		.ascii	"INT_Led_Write\000"
 1573      4C65645F 
 1573      57726974 
 1573      6500
 1574              	.LASF9:
 1575 02a2 6C6F6E67 		.ascii	"long unsigned int\000"
 1575      20756E73 
 1575      69676E65 
 1575      6420696E 
 1575      7400
 1576              	.LASF12:
 1577 02b4 756E7369 		.ascii	"unsigned int\000"
 1577      676E6564 
 1577      20696E74 
 1577      00
 1578              	.LASF11:
 1579 02c1 6C6F6E67 		.ascii	"long long unsigned int\000"
 1579      206C6F6E 
 1579      6720756E 
 1579      7369676E 
 1579      65642069 
 1580              	.LASF34:
 1581 02d8 636F756E 		.ascii	"counter_red\000"
 1581      7465725F 
 1581      72656400 
 1582              	.LASF49:
 1583 02e4 424C5545 		.ascii	"BLUE_Led_Read\000"
 1583      5F4C6564 
 1583      5F526561 
 1583      6400
 1584              	.LASF43:
 1585 02f2 70726576 		.ascii	"prev_state\000"
 1585      5F737461 
 1585      746500
 1586              	.LASF38:
 1587 02fd 666C6167 		.ascii	"flag_eeprom\000"
 1587      5F656570 
ARM GAS  C:\Users\Riccardo\AppData\Local\Temp\ccjNcLE2.s 			page 36


 1587      726F6D00 
 1588              	.LASF15:
 1589 0309 696E7433 		.ascii	"int32_t\000"
 1589      325F7400 
 1590              	.LASF21:
 1591 0311 73697A65 		.ascii	"sizetype\000"
 1591      74797065 
 1591      00
 1592              	.LASF40:
 1593 031a 6572726F 		.ascii	"error\000"
 1593      7200
 1594              	.LASF10:
 1595 0320 6C6F6E67 		.ascii	"long long int\000"
 1595      206C6F6E 
 1595      6720696E 
 1595      7400
 1596              	.LASF19:
 1597 032e 63686172 		.ascii	"char\000"
 1597      00
 1598              	.LASF46:
 1599 0333 4932435F 		.ascii	"I2C_Peripheral_ReadRegister\000"
 1599      50657269 
 1599      70686572 
 1599      616C5F52 
 1599      65616452 
 1600              	.LASF22:
 1601 034f 4953525F 		.ascii	"ISR_LIS3DH_FIFO_WATERMARK\000"
 1601      4C495333 
 1601      44485F46 
 1601      49464F5F 
 1601      57415445 
 1602              	.LASF28:
 1603 0369 4144435F 		.ascii	"ADC_flag\000"
 1603      666C6167 
 1603      00
 1604              	.LASF14:
 1605 0372 75696E74 		.ascii	"uint16_t\000"
 1605      31365F74 
 1605      00
 1606              	.LASF52:
 1607 037b 47524545 		.ascii	"GREEN_Led_Write\000"
 1607      4E5F4C65 
 1607      645F5772 
 1607      69746500 
 1608              	.LASF16:
 1609 038b 75696E74 		.ascii	"uint32_t\000"
 1609      33325F74 
 1609      00
 1610              	.LASF7:
 1611 0394 6C6F6E67 		.ascii	"long int\000"
 1611      20696E74 
 1611      00
 1612              	.LASF20:
 1613 039d 6C6F6E67 		.ascii	"long double\000"
 1613      20646F75 
 1613      626C6500 
 1614              	.LASF0:
ARM GAS  C:\Users\Riccardo\AppData\Local\Temp\ccjNcLE2.s 			page 37


 1615 03a9 7369676E 		.ascii	"signed char\000"
 1615      65642063 
 1615      68617200 
 1616              	.LASF44:
 1617 03b5 636F756E 		.ascii	"counter_button\000"
 1617      7465725F 
 1617      62757474 
 1617      6F6E00
 1618              	.LASF42:
 1619 03c4 696E7431 		.ascii	"int1_src_reg\000"
 1619      5F737263 
 1619      5F726567 
 1619      00
 1620              	.LASF31:
 1621 03d1 70657269 		.ascii	"period_green\000"
 1621      6F645F67 
 1621      7265656E 
 1621      00
 1622              	.LASF50:
 1623 03de 424C5545 		.ascii	"BLUE_Led_Write\000"
 1623      5F4C6564 
 1623      5F577269 
 1623      746500
 1624              		.ident	"GCC: (GNU Tools for ARM Embedded Processors) 5.4.1 20160609 (release) [ARM/embedded-5-bran
