ARM GAS  C:\Users\Riccardo\AppData\Local\Temp\ccaZwK1F.s 			page 1


   1              		.syntax unified
   2              		.cpu cortex-m3
   3              		.fpu softvfp
   4              		.eabi_attribute 20, 1
   5              		.eabi_attribute 21, 1
   6              		.eabi_attribute 23, 3
   7              		.eabi_attribute 24, 1
   8              		.eabi_attribute 25, 1
   9              		.eabi_attribute 26, 1
  10              		.eabi_attribute 30, 1
  11              		.eabi_attribute 34, 1
  12              		.eabi_attribute 18, 4
  13              		.thumb
  14              		.syntax unified
  15              		.file	"main.c"
  16              		.text
  17              	.Ltext0:
  18              		.cfi_sections	.debug_frame
  19              		.global	__aeabi_i2d
  20              		.global	__aeabi_dmul
  21              		.global	__aeabi_ddiv
  22              		.global	__aeabi_d2f
  23              		.global	__aeabi_fmul
  24              		.global	__aeabi_f2iz
  25              		.global	__aeabi_dsub
  26              		.global	__aeabi_dadd
  27              		.global	__aeabi_d2uiz
  28              		.section	.text.main,"ax",%progbits
  29              		.align	2
  30              		.global	main
  31              		.thumb
  32              		.thumb_func
  33              		.type	main, %function
  34              	main:
  35              	.LFB64:
  36              		.file 1 "main.c"
   1:main.c        **** #include "I2C_Interface.h"
   2:main.c        **** #include "project.h"
   3:main.c        **** #include "stdio.h"
   4:main.c        **** #include "math.h"
   5:main.c        **** #include "LIS3DH_Registers.h"
   6:main.c        **** #include "LIS3DH_FIFO_Registers.h"
   7:main.c        **** #include "Interrupt_Routines.h"
   8:main.c        **** 
   9:main.c        **** 
  10:main.c        **** int main(void)
  11:main.c        **** {
  37              		.loc 1 11 0
  38              		.cfi_startproc
  39              		@ args = 0, pretend = 0, frame = 88
  40              		@ frame_needed = 0, uses_anonymous_args = 0
  41 0000 2DE9F047 		push	{r4, r5, r6, r7, r8, r9, r10, lr}
  42              		.cfi_def_cfa_offset 32
  43              		.cfi_offset 4, -32
  44              		.cfi_offset 5, -28
  45              		.cfi_offset 6, -24
  46              		.cfi_offset 7, -20
ARM GAS  C:\Users\Riccardo\AppData\Local\Temp\ccaZwK1F.s 			page 2


  47              		.cfi_offset 8, -16
  48              		.cfi_offset 9, -12
  49              		.cfi_offset 10, -8
  50              		.cfi_offset 14, -4
  51 0004 96B0     		sub	sp, sp, #88
  52              		.cfi_def_cfa_offset 120
  12:main.c        ****     CyGlobalIntEnable; /* Enable global interrupts. */
  53              		.loc 1 12 0
  54              		.syntax unified
  55              	@ 12 "main.c" 1
  56 0006 62B6     		CPSIE   i
  57              	@ 0 "" 2
  13:main.c        ****     
  14:main.c        ****     
  15:main.c        ****     
  16:main.c        ****     /***************** VARIABLES' INITIALIZATION *************/
  17:main.c        ****     
  18:main.c        ****     /* Initialization of blinking period of the RGB led channels in order to be set OFF */
  19:main.c        ****     period_red = THR_OFF; 
  58              		.loc 1 19 0
  59              		.thumb
  60              		.syntax unified
  61 0008 9048     		ldr	r0, .L32
  62 000a 40F26B13 		movw	r3, #363
  63 000e 0380     		strh	r3, [r0]	@ movhi
  20:main.c        ****     period_green = THR_OFF;
  64              		.loc 1 20 0
  65 0010 8F49     		ldr	r1, .L32+4
  66 0012 0B80     		strh	r3, [r1]	@ movhi
  21:main.c        ****     period_blue = THR_OFF;
  67              		.loc 1 21 0
  68 0014 8F4A     		ldr	r2, .L32+8
  69 0016 1380     		strh	r3, [r2]	@ movhi
  22:main.c        ****     
  23:main.c        ****     /* Initialization of the counter needed for toggle of RGB Led */
  24:main.c        ****     counter_red = period_red;
  70              		.loc 1 24 0
  71 0018 0388     		ldrh	r3, [r0]
  72 001a 9BB2     		uxth	r3, r3
  73 001c 8E48     		ldr	r0, .L32+12
  74 001e 0380     		strh	r3, [r0]	@ movhi
  25:main.c        ****     counter_green = period_green;
  75              		.loc 1 25 0
  76 0020 0B88     		ldrh	r3, [r1]
  77 0022 9BB2     		uxth	r3, r3
  78 0024 8D49     		ldr	r1, .L32+16
  79 0026 0B80     		strh	r3, [r1]	@ movhi
  26:main.c        ****     counter_blue = period_blue;
  80              		.loc 1 26 0
  81 0028 1388     		ldrh	r3, [r2]
  82 002a 9BB2     		uxth	r3, r3
  83 002c 8C4A     		ldr	r2, .L32+20
  84 002e 1380     		strh	r3, [r2]	@ movhi
  27:main.c        ****     
  28:main.c        ****     /* String to print out messages on the UART */
  29:main.c        ****     char message[50];
  30:main.c        ****     
ARM GAS  C:\Users\Riccardo\AppData\Local\Temp\ccaZwK1F.s 			page 3


  31:main.c        ****     /**************** COMPONENTS' INITIALIZATION *******************/
  32:main.c        ****     
  33:main.c        ****     /* Timer */
  34:main.c        ****     Timer_Start(); 
  85              		.loc 1 34 0
  86 0030 FFF7FEFF 		bl	Timer_Start
  87              	.LVL0:
  35:main.c        ****     
  36:main.c        ****     /* I2C communication */
  37:main.c        ****     CS_LIS3DH_Write(1); 
  88              		.loc 1 37 0
  89 0034 0120     		movs	r0, #1
  90 0036 FFF7FEFF 		bl	CS_LIS3DH_Write
  91              	.LVL1:
  38:main.c        ****     SDO_LIS3DH_Write(0);
  92              		.loc 1 38 0
  93 003a 0020     		movs	r0, #0
  94 003c FFF7FEFF 		bl	SDO_LIS3DH_Write
  95              	.LVL2:
  39:main.c        ****     I2C_Peripheral_Start();
  96              		.loc 1 39 0
  97 0040 FFF7FEFF 		bl	I2C_Peripheral_Start
  98              	.LVL3:
  40:main.c        ****     
  41:main.c        ****     /* UART Debug communication*/
  42:main.c        ****     UART_Debug_Start();
  99              		.loc 1 42 0
 100 0044 FFF7FEFF 		bl	UART_Debug_Start
 101              	.LVL4:
  43:main.c        ****     
  44:main.c        ****     /***************** CUSTOM ISR INITIALIZATION ******************/
  45:main.c        ****     
  46:main.c        ****     //isr_LIS3DH_StartEx(ISR_LIS3DH_FIFO_OVERRUN); //LIS3DH interrupt enable
  47:main.c        ****     
  48:main.c        ****     /* Timer */
  49:main.c        ****     isr_TIMER_StartEx(ISR_TIMER);
 102              		.loc 1 49 0
 103 0048 8648     		ldr	r0, .L32+24
 104 004a FFF7FEFF 		bl	isr_TIMER_StartEx
 105              	.LVL5:
  50:main.c        ****     
  51:main.c        ****     /* LIS3DH Watermark*/
  52:main.c        ****     isr_LIS3DH_StartEx(ISR_LIS3DH_FIFO_WATERMARK); 
 106              		.loc 1 52 0
 107 004e 8648     		ldr	r0, .L32+28
 108 0050 FFF7FEFF 		bl	isr_LIS3DH_StartEx
 109              	.LVL6:
  53:main.c        ****     
  54:main.c        ****     CyDelay(5); //"The boot procedure is complete about 5 milliseconds after device power-up."
 110              		.loc 1 54 0
 111 0054 0520     		movs	r0, #5
 112 0056 FFF7FEFF 		bl	CyDelay
 113              	.LVL7:
 114              	.LBB2:
  55:main.c        ****     
  56:main.c        ****     
  57:main.c        **** 
ARM GAS  C:\Users\Riccardo\AppData\Local\Temp\ccaZwK1F.s 			page 4


  58:main.c        ****     // Check which devices are present on the I2C bus
  59:main.c        ****     for (int i = 0 ; i < 128; i++)
 115              		.loc 1 59 0
 116 005a 0024     		movs	r4, #0
 117 005c 0CE0     		b	.L2
 118              	.LVL8:
 119              	.L4:
  60:main.c        ****     {
  61:main.c        ****         if (I2C_Peripheral_IsDeviceConnected(i))
 120              		.loc 1 61 0
 121 005e E0B2     		uxtb	r0, r4
 122 0060 FFF7FEFF 		bl	I2C_Peripheral_IsDeviceConnected
 123              	.LVL9:
 124 0064 38B1     		cbz	r0, .L3
  62:main.c        ****         {
  63:main.c        ****             // print out the address is hex format
  64:main.c        ****             sprintf(message, "Device 0x%02X is connected\r\n", i);
 125              		.loc 1 64 0
 126 0066 2246     		mov	r2, r4
 127 0068 8049     		ldr	r1, .L32+32
 128 006a 09A8     		add	r0, sp, #36
 129 006c FFF7FEFF 		bl	sprintf
 130              	.LVL10:
  65:main.c        ****             UART_Debug_PutString(message); 
 131              		.loc 1 65 0
 132 0070 09A8     		add	r0, sp, #36
 133 0072 FFF7FEFF 		bl	UART_Debug_PutString
 134              	.LVL11:
 135              	.L3:
  59:main.c        ****     {
 136              		.loc 1 59 0 discriminator 2
 137 0076 0134     		adds	r4, r4, #1
 138              	.LVL12:
 139              	.L2:
  59:main.c        ****     {
 140              		.loc 1 59 0 is_stmt 0 discriminator 1
 141 0078 7F2C     		cmp	r4, #127
 142 007a F0DD     		ble	.L4
 143              	.LBE2:
  66:main.c        ****         }
  67:main.c        ****         
  68:main.c        ****     }
  69:main.c        ****     
  70:main.c        ****     /******************************************/
  71:main.c        ****     /*            I2C Reading                 */
  72:main.c        ****     /******************************************/
  73:main.c        ****     
  74:main.c        ****     /* Read WHO AM I REGISTER register */
  75:main.c        ****     uint8_t who_am_i_reg;
  76:main.c        ****     ErrorCode error = I2C_Peripheral_ReadRegister(LIS3DH_DEVICE_ADDRESS,
 144              		.loc 1 76 0 is_stmt 1
 145 007c 0DF12302 		add	r2, sp, #35
 146 0080 0F21     		movs	r1, #15
 147 0082 1820     		movs	r0, #24
 148 0084 FFF7FEFF 		bl	I2C_Peripheral_ReadRegister
 149              	.LVL13:
  77:main.c        ****                                                   LIS3DH_WHO_AM_I_REG_ADDR, 
ARM GAS  C:\Users\Riccardo\AppData\Local\Temp\ccaZwK1F.s 			page 5


  78:main.c        ****                                                   &who_am_i_reg);
  79:main.c        ****     if (error == NO_ERROR)
 150              		.loc 1 79 0
 151 0088 48B9     		cbnz	r0, .L5
  80:main.c        ****     {
  81:main.c        ****         sprintf(message, "WHO AM I REG: 0x%02X [Expected: 0x33]\r\n", who_am_i_reg);
 152              		.loc 1 81 0
 153 008a 9DF82320 		ldrb	r2, [sp, #35]	@ zero_extendqisi2
 154 008e 7849     		ldr	r1, .L32+36
 155 0090 09A8     		add	r0, sp, #36
 156              	.LVL14:
 157 0092 FFF7FEFF 		bl	sprintf
 158              	.LVL15:
  82:main.c        ****         UART_Debug_PutString(message); 
 159              		.loc 1 82 0
 160 0096 09A8     		add	r0, sp, #36
 161 0098 FFF7FEFF 		bl	UART_Debug_PutString
 162              	.LVL16:
 163 009c 02E0     		b	.L6
 164              	.LVL17:
 165              	.L5:
  83:main.c        ****     }
  84:main.c        ****     else
  85:main.c        ****     {
  86:main.c        ****         UART_Debug_PutString("Error occurred during I2C comm\r\n");   
 166              		.loc 1 86 0
 167 009e 7548     		ldr	r0, .L32+40
 168              	.LVL18:
 169 00a0 FFF7FEFF 		bl	UART_Debug_PutString
 170              	.LVL19:
 171              	.L6:
  87:main.c        ****     }
  88:main.c        ****     
  89:main.c        ****     /*      I2C Reading Status Register       */
  90:main.c        ****     
  91:main.c        ****     uint8_t status_register; 
  92:main.c        ****     error = I2C_Peripheral_ReadRegister(LIS3DH_DEVICE_ADDRESS,
 172              		.loc 1 92 0
 173 00a4 0DF12202 		add	r2, sp, #34
 174 00a8 2721     		movs	r1, #39
 175 00aa 1820     		movs	r0, #24
 176 00ac FFF7FEFF 		bl	I2C_Peripheral_ReadRegister
 177              	.LVL20:
  93:main.c        ****                                         LIS3DH_STATUS_REG,
  94:main.c        ****                                         &status_register);
  95:main.c        ****     
  96:main.c        ****     if (error == NO_ERROR)
 178              		.loc 1 96 0
 179 00b0 48B9     		cbnz	r0, .L7
  97:main.c        ****     {
  98:main.c        ****         sprintf(message, "STATUS REGISTER: 0x%02X\r\n", status_register);
 180              		.loc 1 98 0
 181 00b2 9DF82220 		ldrb	r2, [sp, #34]	@ zero_extendqisi2
 182 00b6 7049     		ldr	r1, .L32+44
 183 00b8 09A8     		add	r0, sp, #36
 184              	.LVL21:
 185 00ba FFF7FEFF 		bl	sprintf
ARM GAS  C:\Users\Riccardo\AppData\Local\Temp\ccaZwK1F.s 			page 6


 186              	.LVL22:
  99:main.c        ****         UART_Debug_PutString(message); 
 187              		.loc 1 99 0
 188 00be 09A8     		add	r0, sp, #36
 189 00c0 FFF7FEFF 		bl	UART_Debug_PutString
 190              	.LVL23:
 191 00c4 02E0     		b	.L8
 192              	.LVL24:
 193              	.L7:
 100:main.c        ****     }
 101:main.c        ****     else
 102:main.c        ****     {
 103:main.c        ****         UART_Debug_PutString("Error occurred during I2C comm to read status register\r\n");   
 194              		.loc 1 103 0
 195 00c6 6D48     		ldr	r0, .L32+48
 196              	.LVL25:
 197 00c8 FFF7FEFF 		bl	UART_Debug_PutString
 198              	.LVL26:
 199              	.L8:
 104:main.c        ****     }
 105:main.c        ****     
 106:main.c        ****     /******************************************/
 107:main.c        ****     /*        Read Control Register 1         */
 108:main.c        ****     /******************************************/
 109:main.c        ****     uint8_t ctrl_reg1; 
 110:main.c        ****     error = I2C_Peripheral_ReadRegister(LIS3DH_DEVICE_ADDRESS,
 200              		.loc 1 110 0
 201 00cc 0DF12102 		add	r2, sp, #33
 202 00d0 2021     		movs	r1, #32
 203 00d2 1820     		movs	r0, #24
 204 00d4 FFF7FEFF 		bl	I2C_Peripheral_ReadRegister
 205              	.LVL27:
 111:main.c        ****                                         LIS3DH_CTRL_REG1,
 112:main.c        ****                                         &ctrl_reg1);
 113:main.c        ****     
 114:main.c        ****     if (error == NO_ERROR)
 206              		.loc 1 114 0
 207 00d8 48B9     		cbnz	r0, .L9
 115:main.c        ****     {
 116:main.c        ****         sprintf(message, "CONTROL REGISTER 1: 0x%02X\r\n", ctrl_reg1);
 208              		.loc 1 116 0
 209 00da 9DF82120 		ldrb	r2, [sp, #33]	@ zero_extendqisi2
 210 00de 6849     		ldr	r1, .L32+52
 211 00e0 09A8     		add	r0, sp, #36
 212              	.LVL28:
 213 00e2 FFF7FEFF 		bl	sprintf
 214              	.LVL29:
 117:main.c        ****         UART_Debug_PutString(message); 
 215              		.loc 1 117 0
 216 00e6 09A8     		add	r0, sp, #36
 217 00e8 FFF7FEFF 		bl	UART_Debug_PutString
 218              	.LVL30:
 219 00ec 02E0     		b	.L10
 220              	.LVL31:
 221              	.L9:
 118:main.c        ****     }
 119:main.c        ****     else
ARM GAS  C:\Users\Riccardo\AppData\Local\Temp\ccaZwK1F.s 			page 7


 120:main.c        ****     {
 121:main.c        ****         UART_Debug_PutString("Error occurred during I2C comm to read control register 1\r\n");   
 222              		.loc 1 121 0
 223 00ee 6548     		ldr	r0, .L32+56
 224              	.LVL32:
 225 00f0 FFF7FEFF 		bl	UART_Debug_PutString
 226              	.LVL33:
 227              	.L10:
 122:main.c        ****     }
 123:main.c        ****     
 124:main.c        ****     /******************************************/
 125:main.c        ****     /*            I2C Writing                 */
 126:main.c        ****     /******************************************/
 127:main.c        ****     
 128:main.c        ****         
 129:main.c        ****     UART_Debug_PutString("\r\nWriting new values..\r\n");
 228              		.loc 1 129 0
 229 00f4 6448     		ldr	r0, .L32+60
 230 00f6 FFF7FEFF 		bl	UART_Debug_PutString
 231              	.LVL34:
 130:main.c        ****     
 131:main.c        ****     if (ctrl_reg1 != LIS3DH_NORMAL_MODE_100_CTRL_REG1)
 232              		.loc 1 131 0
 233 00fa 9DF82130 		ldrb	r3, [sp, #33]	@ zero_extendqisi2
 234 00fe 572B     		cmp	r3, #87
 235 0100 14D0     		beq	.L11
 132:main.c        ****     {
 133:main.c        ****         ctrl_reg1 = LIS3DH_NORMAL_MODE_100_CTRL_REG1;
 236              		.loc 1 133 0
 237 0102 5722     		movs	r2, #87
 238 0104 8DF82120 		strb	r2, [sp, #33]
 134:main.c        ****     
 135:main.c        ****         error = I2C_Peripheral_WriteRegister(LIS3DH_DEVICE_ADDRESS,
 239              		.loc 1 135 0
 240 0108 2021     		movs	r1, #32
 241 010a 1820     		movs	r0, #24
 242 010c FFF7FEFF 		bl	I2C_Peripheral_WriteRegister
 243              	.LVL35:
 136:main.c        ****                                              LIS3DH_CTRL_REG1,
 137:main.c        ****                                              ctrl_reg1);
 138:main.c        ****     
 139:main.c        ****         if (error == NO_ERROR)
 244              		.loc 1 139 0
 245 0110 48B9     		cbnz	r0, .L12
 140:main.c        ****         {
 141:main.c        ****             sprintf(message, "CONTROL REGISTER 1 successfully written as: 0x%02X\r\n", ctrl_reg1);
 246              		.loc 1 141 0
 247 0112 9DF82120 		ldrb	r2, [sp, #33]	@ zero_extendqisi2
 248 0116 5D49     		ldr	r1, .L32+64
 249 0118 09A8     		add	r0, sp, #36
 250              	.LVL36:
 251 011a FFF7FEFF 		bl	sprintf
 252              	.LVL37:
 142:main.c        ****             UART_Debug_PutString(message); 
 253              		.loc 1 142 0
 254 011e 09A8     		add	r0, sp, #36
 255 0120 FFF7FEFF 		bl	UART_Debug_PutString
ARM GAS  C:\Users\Riccardo\AppData\Local\Temp\ccaZwK1F.s 			page 8


 256              	.LVL38:
 257 0124 02E0     		b	.L11
 258              	.LVL39:
 259              	.L12:
 143:main.c        ****         }
 144:main.c        ****         else
 145:main.c        ****         {
 146:main.c        ****             UART_Debug_PutString("Error occurred during I2C comm to set control register 1\r\n");  
 260              		.loc 1 146 0
 261 0126 5A48     		ldr	r0, .L32+68
 262              	.LVL40:
 263 0128 FFF7FEFF 		bl	UART_Debug_PutString
 264              	.LVL41:
 265              	.L11:
 147:main.c        ****         }
 148:main.c        ****     }
 149:main.c        ****     
 150:main.c        ****     /******************************************/
 151:main.c        ****     /*     Read Control Register 1 again      */
 152:main.c        ****     /******************************************/
 153:main.c        **** 
 154:main.c        ****     error = I2C_Peripheral_ReadRegister(LIS3DH_DEVICE_ADDRESS,
 266              		.loc 1 154 0
 267 012c 0DF12102 		add	r2, sp, #33
 268 0130 2021     		movs	r1, #32
 269 0132 1820     		movs	r0, #24
 270 0134 FFF7FEFF 		bl	I2C_Peripheral_ReadRegister
 271              	.LVL42:
 155:main.c        ****                                         LIS3DH_CTRL_REG1,
 156:main.c        ****                                         &ctrl_reg1);
 157:main.c        ****     
 158:main.c        ****     if (error == NO_ERROR)
 272              		.loc 1 158 0
 273 0138 48B9     		cbnz	r0, .L13
 159:main.c        ****     {
 160:main.c        ****         sprintf(message, "CONTROL REGISTER 1 after overwrite operation: 0x%02X\r\n", ctrl_reg1);
 274              		.loc 1 160 0
 275 013a 9DF82120 		ldrb	r2, [sp, #33]	@ zero_extendqisi2
 276 013e 5549     		ldr	r1, .L32+72
 277 0140 09A8     		add	r0, sp, #36
 278              	.LVL43:
 279 0142 FFF7FEFF 		bl	sprintf
 280              	.LVL44:
 161:main.c        ****         UART_Debug_PutString(message); 
 281              		.loc 1 161 0
 282 0146 09A8     		add	r0, sp, #36
 283 0148 FFF7FEFF 		bl	UART_Debug_PutString
 284              	.LVL45:
 285 014c 02E0     		b	.L14
 286              	.LVL46:
 287              	.L13:
 162:main.c        ****     }
 163:main.c        ****     else
 164:main.c        ****     {
 165:main.c        ****         UART_Debug_PutString("Error occurred during I2C comm to read control register 1\r\n");   
 288              		.loc 1 165 0
 289 014e 4D48     		ldr	r0, .L32+56
ARM GAS  C:\Users\Riccardo\AppData\Local\Temp\ccaZwK1F.s 			page 9


 290              	.LVL47:
 291 0150 FFF7FEFF 		bl	UART_Debug_PutString
 292              	.LVL48:
 293              	.L14:
 166:main.c        ****     }
 167:main.c        ****     
 168:main.c        ****      /******************************************/
 169:main.c        ****      /* Read Control Register 4 */
 170:main.c        ****      /******************************************/
 171:main.c        **** 
 172:main.c        ****     
 173:main.c        ****     
 174:main.c        ****     uint8_t ctrl_reg4;
 175:main.c        **** 
 176:main.c        ****     error = I2C_Peripheral_ReadRegister(LIS3DH_DEVICE_ADDRESS,
 294              		.loc 1 176 0
 295 0154 08AA     		add	r2, sp, #32
 296 0156 2321     		movs	r1, #35
 297 0158 1820     		movs	r0, #24
 298 015a FFF7FEFF 		bl	I2C_Peripheral_ReadRegister
 299              	.LVL49:
 177:main.c        ****                                         LIS3DH_CTRL_REG4,
 178:main.c        ****                                         &ctrl_reg4);
 179:main.c        ****     
 180:main.c        ****     if (error == NO_ERROR)
 300              		.loc 1 180 0
 301 015e 48B9     		cbnz	r0, .L15
 181:main.c        ****     {
 182:main.c        ****         sprintf(message, "CONTROL REGISTER 4: 0x%02X\r\n", ctrl_reg4);
 302              		.loc 1 182 0
 303 0160 9DF82020 		ldrb	r2, [sp, #32]	@ zero_extendqisi2
 304 0164 4C49     		ldr	r1, .L32+76
 305 0166 09A8     		add	r0, sp, #36
 306              	.LVL50:
 307 0168 FFF7FEFF 		bl	sprintf
 308              	.LVL51:
 183:main.c        ****         UART_Debug_PutString(message); 
 309              		.loc 1 183 0
 310 016c 09A8     		add	r0, sp, #36
 311 016e FFF7FEFF 		bl	UART_Debug_PutString
 312              	.LVL52:
 313 0172 02E0     		b	.L16
 314              	.LVL53:
 315              	.L15:
 184:main.c        ****     }
 185:main.c        ****     else
 186:main.c        ****     {
 187:main.c        ****         UART_Debug_PutString("Error occurred during I2C comm to read control register4\r\n");   
 316              		.loc 1 187 0
 317 0174 4948     		ldr	r0, .L32+80
 318              	.LVL54:
 319 0176 FFF7FEFF 		bl	UART_Debug_PutString
 320              	.LVL55:
 321              	.L16:
 188:main.c        ****     }
 189:main.c        ****     
 190:main.c        ****     
ARM GAS  C:\Users\Riccardo\AppData\Local\Temp\ccaZwK1F.s 			page 10


 191:main.c        ****     ctrl_reg4 = LIS3DH_CTRL_REG4_BDU_ACTIVE; 
 322              		.loc 1 191 0
 323 017a 8022     		movs	r2, #128
 324 017c 16AC     		add	r4, sp, #88
 325              	.LVL56:
 326 017e 04F8382D 		strb	r2, [r4, #-56]!
 192:main.c        ****     
 193:main.c        ****     error = I2C_Peripheral_WriteRegister(LIS3DH_DEVICE_ADDRESS,
 327              		.loc 1 193 0
 328 0182 2321     		movs	r1, #35
 329 0184 1820     		movs	r0, #24
 330 0186 FFF7FEFF 		bl	I2C_Peripheral_WriteRegister
 331              	.LVL57:
 194:main.c        ****                                          LIS3DH_CTRL_REG4,
 195:main.c        ****                                          ctrl_reg4);
 196:main.c        ****     
 197:main.c        ****     error = I2C_Peripheral_ReadRegister(LIS3DH_DEVICE_ADDRESS,
 332              		.loc 1 197 0
 333 018a 2246     		mov	r2, r4
 334 018c 2321     		movs	r1, #35
 335 018e 1820     		movs	r0, #24
 336 0190 FFF7FEFF 		bl	I2C_Peripheral_ReadRegister
 337              	.LVL58:
 198:main.c        ****                                         LIS3DH_CTRL_REG4,
 199:main.c        ****                                         &ctrl_reg4);
 200:main.c        ****     
 201:main.c        ****     
 202:main.c        ****     if (error == NO_ERROR)
 338              		.loc 1 202 0
 339 0194 48B9     		cbnz	r0, .L17
 203:main.c        ****     {
 204:main.c        ****         sprintf(message, "CONTROL REGISTER 4 after being updated: 0x%02X\r\n", ctrl_reg4);
 340              		.loc 1 204 0
 341 0196 9DF82020 		ldrb	r2, [sp, #32]	@ zero_extendqisi2
 342 019a 4149     		ldr	r1, .L32+84
 343 019c 09A8     		add	r0, sp, #36
 344              	.LVL59:
 345 019e FFF7FEFF 		bl	sprintf
 346              	.LVL60:
 205:main.c        ****         UART_Debug_PutString(message); 
 347              		.loc 1 205 0
 348 01a2 09A8     		add	r0, sp, #36
 349 01a4 FFF7FEFF 		bl	UART_Debug_PutString
 350              	.LVL61:
 351 01a8 02E0     		b	.L18
 352              	.LVL62:
 353              	.L17:
 206:main.c        ****     }
 207:main.c        ****     else
 208:main.c        ****     {
 209:main.c        ****         UART_Debug_PutString("Error occurred during I2C comm to read control register4\r\n");   
 354              		.loc 1 209 0
 355 01aa 3C48     		ldr	r0, .L32+80
 356              	.LVL63:
 357 01ac FFF7FEFF 		bl	UART_Debug_PutString
 358              	.LVL64:
 359              	.L18:
ARM GAS  C:\Users\Riccardo\AppData\Local\Temp\ccaZwK1F.s 			page 11


 210:main.c        ****     }
 211:main.c        ****     
 212:main.c        ****     /******************************************************/
 213:main.c        ****     // FIFO CONFIGURATION 
 214:main.c        ****     /******************************************************/
 215:main.c        ****     ////////// CONTROL REGISTER 5 ///////////////////
 216:main.c        ****      
 217:main.c        ****     
 218:main.c        ****    
 219:main.c        ****     uint8_t ctrl_reg_5 = FIFO_ENABLE;
 220:main.c        ****     
 221:main.c        ****         error = I2C_Peripheral_WriteRegister(LIS3DH_DEVICE_ADDRESS,
 360              		.loc 1 221 0
 361 01b0 4022     		movs	r2, #64
 362 01b2 2421     		movs	r1, #36
 363 01b4 1820     		movs	r0, #24
 364 01b6 FFF7FEFF 		bl	I2C_Peripheral_WriteRegister
 365              	.LVL65:
 222:main.c        ****                                              LIS3DH_CTRL_REG_5,
 223:main.c        ****                                              ctrl_reg_5);
 224:main.c        ****     
 225:main.c        ****         if (error == NO_ERROR)
 366              		.loc 1 225 0
 367 01ba 40B9     		cbnz	r0, .L19
 226:main.c        ****         {
 227:main.c        ****             sprintf(message, "CONTROL REGISTER 5 FIFO ENABLE successfully written as: 0x%02X\r\n", 
 368              		.loc 1 227 0
 369 01bc 4022     		movs	r2, #64
 370 01be 3949     		ldr	r1, .L32+88
 371 01c0 09A8     		add	r0, sp, #36
 372              	.LVL66:
 373 01c2 FFF7FEFF 		bl	sprintf
 374              	.LVL67:
 228:main.c        ****             UART_Debug_PutString(message); 
 375              		.loc 1 228 0
 376 01c6 09A8     		add	r0, sp, #36
 377 01c8 FFF7FEFF 		bl	UART_Debug_PutString
 378              	.LVL68:
 379 01cc 02E0     		b	.L20
 380              	.LVL69:
 381              	.L19:
 229:main.c        ****         }
 230:main.c        ****         else
 231:main.c        ****         {
 232:main.c        ****             UART_Debug_PutString("Error occurred during I2C comm to set control register 5\r\n");  
 382              		.loc 1 232 0
 383 01ce 3648     		ldr	r0, .L32+92
 384              	.LVL70:
 385 01d0 FFF7FEFF 		bl	UART_Debug_PutString
 386              	.LVL71:
 387              	.L20:
 233:main.c        ****         }
 234:main.c        ****     
 235:main.c        ****     
 236:main.c        ****     //////////////// FIFO CONTROL REGISTER /////////////////
 237:main.c        ****     
 238:main.c        ****     
ARM GAS  C:\Users\Riccardo\AppData\Local\Temp\ccaZwK1F.s 			page 12


 239:main.c        ****     
 240:main.c        ****    
 241:main.c        ****     uint8_t    fifo_ctrl_reg = BYPASS_MODE;
 242:main.c        ****     
 243:main.c        ****         error = I2C_Peripheral_WriteRegister(LIS3DH_DEVICE_ADDRESS,
 388              		.loc 1 243 0
 389 01d4 0022     		movs	r2, #0
 390 01d6 2E21     		movs	r1, #46
 391 01d8 1820     		movs	r0, #24
 392 01da FFF7FEFF 		bl	I2C_Peripheral_WriteRegister
 393              	.LVL72:
 244:main.c        ****                                              LIS3DH_FIFO_CTRL_REG,
 245:main.c        ****                                              fifo_ctrl_reg);
 246:main.c        ****     
 247:main.c        ****         if (error == NO_ERROR)
 394              		.loc 1 247 0
 395 01de 40B9     		cbnz	r0, .L21
 248:main.c        ****         {
 249:main.c        ****             sprintf(message, "CONTROL REGISTER 5 BYPASS MODE successfully written as: 0x%02X\r\n", 
 396              		.loc 1 249 0
 397 01e0 0022     		movs	r2, #0
 398 01e2 3249     		ldr	r1, .L32+96
 399 01e4 09A8     		add	r0, sp, #36
 400              	.LVL73:
 401 01e6 FFF7FEFF 		bl	sprintf
 402              	.LVL74:
 250:main.c        ****             UART_Debug_PutString(message); 
 403              		.loc 1 250 0
 404 01ea 09A8     		add	r0, sp, #36
 405 01ec FFF7FEFF 		bl	UART_Debug_PutString
 406              	.LVL75:
 407 01f0 02E0     		b	.L22
 408              	.LVL76:
 409              	.L21:
 251:main.c        ****         }
 252:main.c        ****         else
 253:main.c        ****         {
 254:main.c        ****             UART_Debug_PutString("Error occurred during I2C comm to set control register 5\r\n");  
 410              		.loc 1 254 0
 411 01f2 2D48     		ldr	r0, .L32+92
 412              	.LVL77:
 413 01f4 FFF7FEFF 		bl	UART_Debug_PutString
 414              	.LVL78:
 415              	.L22:
 255:main.c        ****         }
 256:main.c        ****     
 257:main.c        ****     
 258:main.c        ****     
 259:main.c        ****     //ENABLING FIFO INTERRUPT ON OVERRUN
 260:main.c        ****          uint8_t ctrl_reg_3 = INT_FIFO_WMK;
 261:main.c        ****     
 262:main.c        ****         error = I2C_Peripheral_WriteRegister(LIS3DH_DEVICE_ADDRESS,
 416              		.loc 1 262 0
 417 01f8 0422     		movs	r2, #4
 418 01fa 2221     		movs	r1, #34
 419 01fc 1820     		movs	r0, #24
 420 01fe FFF7FEFF 		bl	I2C_Peripheral_WriteRegister
ARM GAS  C:\Users\Riccardo\AppData\Local\Temp\ccaZwK1F.s 			page 13


 421              	.LVL79:
 263:main.c        ****                                              LIS3DH_CTRL_REG_3,
 264:main.c        ****                                              ctrl_reg_3);
 265:main.c        ****     
 266:main.c        ****         if (error == NO_ERROR)
 422              		.loc 1 266 0
 423 0202 40B9     		cbnz	r0, .L23
 267:main.c        ****         {
 268:main.c        ****             sprintf(message, "CONTROL REGISTER 3 OVERRUN INT ENABLE successfully written as: 0x%02X
 424              		.loc 1 268 0
 425 0204 0422     		movs	r2, #4
 426 0206 2A49     		ldr	r1, .L32+100
 427 0208 09A8     		add	r0, sp, #36
 428              	.LVL80:
 429 020a FFF7FEFF 		bl	sprintf
 430              	.LVL81:
 269:main.c        ****             UART_Debug_PutString(message); 
 431              		.loc 1 269 0
 432 020e 09A8     		add	r0, sp, #36
 433 0210 FFF7FEFF 		bl	UART_Debug_PutString
 434              	.LVL82:
 435 0214 02E0     		b	.L24
 436              	.LVL83:
 437              	.L23:
 270:main.c        ****         }
 271:main.c        ****         else
 272:main.c        ****         {
 273:main.c        ****             UART_Debug_PutString("Error occurred during I2C comm to set control register 5\r\n");  
 438              		.loc 1 273 0
 439 0216 2448     		ldr	r0, .L32+92
 440              	.LVL84:
 441 0218 FFF7FEFF 		bl	UART_Debug_PutString
 442              	.LVL85:
 443              	.L24:
 274:main.c        ****         }
 275:main.c        ****     
 276:main.c        ****     
 277:main.c        ****     
 278:main.c        ****     
 279:main.c        ****     
 280:main.c        ****     
 281:main.c        ****     
 282:main.c        ****     
 283:main.c        ****     /*******************************************************/
 284:main.c        ****     
 285:main.c        ****     
 286:main.c        ****     
 287:main.c        ****     //variables to save the registers output value in digit
 288:main.c        ****     int16_t Out_X; 
 289:main.c        ****     int16_t Out_Y;
 290:main.c        ****     int16_t Out_Z;
 291:main.c        ****     
 292:main.c        ****     //variables to save the output value in mg
 293:main.c        ****     int16_t Out_X_mg; 
 294:main.c        ****     int16_t Out_Y_mg;
 295:main.c        ****     int16_t Out_Z_mg;
 296:main.c        ****     
ARM GAS  C:\Users\Riccardo\AppData\Local\Temp\ccaZwK1F.s 			page 14


 297:main.c        ****     //float variables to save the output value in m/s^2
 298:main.c        ****     float32 Out_X_ms2;
 299:main.c        ****     float32 Out_Y_ms2;
 300:main.c        ****     float32 Out_Z_ms2;
 301:main.c        ****     
 302:main.c        ****     //int  variables for the casting of the float values, the obtained results are acceleration
 303:main.c        ****     //values in mm/s^2
 304:main.c        ****     int32_t Out_X_mms2;
 305:main.c        ****     int32_t Out_Y_mms2;
 306:main.c        ****     int32_t Out_Z_mms2;
 307:main.c        ****     
 308:main.c        ****     uint8_t header = 0xA0;
 309:main.c        ****     uint8_t footer = 0xC0;
 310:main.c        ****     uint8_t OutArray[14]; 
 311:main.c        ****     uint8_t X_Data[2];
 312:main.c        ****     uint8_t Y_Data[2];
 313:main.c        ****     uint8_t Z_Data[2];
 314:main.c        ****     
 315:main.c        ****     // Variables that contains the mean of the acceleration in a single FIFO burst
 316:main.c        ****     
 317:main.c        ****     int16_t mean_X_mg=0; 
 318:main.c        ****     int16_t mean_Y_mg=0;
 319:main.c        ****     int16_t mean_Z_mg=0;
 320:main.c        ****     
 321:main.c        ****     
 322:main.c        ****     OutArray[0] = header;
 444              		.loc 1 322 0
 445 021c A023     		movs	r3, #160
 446 021e 8DF81030 		strb	r3, [sp, #16]
 323:main.c        ****     OutArray[13] = footer;
 447              		.loc 1 323 0
 448 0222 C023     		movs	r3, #192
 449 0224 8DF81D30 		strb	r3, [sp, #29]
 450              	.LVL86:
 324:main.c        ****     
 325:main.c        ****     
 326:main.c        ****     uint8_t  fss; // Number of unread samples
 327:main.c        ****     
 328:main.c        ****     uint8_t flag_mode = 1; // 1= Stream Mode, 0= Read data
 329:main.c        ****     //uint8_t overrun_reg;
 330:main.c        ****     //uint8_t empty_reg;
 331:main.c        ****     //uint8_t wmk_reg;
 332:main.c        ****     //uint8_t flag_overrun = 0;
 333:main.c        ****     uint8_t counter=0;
 451              		.loc 1 333 0
 452 0228 0024     		movs	r4, #0
 328:main.c        ****     //uint8_t overrun_reg;
 453              		.loc 1 328 0
 454 022a 4FF0010A 		mov	r10, #1
 319:main.c        ****     
 455              		.loc 1 319 0
 456 022e A146     		mov	r9, r4
 318:main.c        ****     int16_t mean_Z_mg=0;
 457              		.loc 1 318 0
 458 0230 2646     		mov	r6, r4
 317:main.c        ****     int16_t mean_Y_mg=0;
 459              		.loc 1 317 0
ARM GAS  C:\Users\Riccardo\AppData\Local\Temp\ccaZwK1F.s 			page 15


 460 0232 A046     		mov	r8, r4
 461              	.LVL87:
 462              	.L30:
 334:main.c        ****     for(;;)
 335:main.c        ****     {
 336:main.c        ****         
 337:main.c        ****         if (flag_mode ==1){
 463              		.loc 1 337 0
 464 0234 BAF1000F 		cmp	r10, #0
 465 0238 00F08681 		beq	.L28
 466              	.LVL88:
 338:main.c        ****             fifo_ctrl_reg = STREAM_MODE_THR_WMK;
 339:main.c        ****             error = I2C_Peripheral_WriteRegister(LIS3DH_DEVICE_ADDRESS,
 467              		.loc 1 339 0
 468 023c 8722     		movs	r2, #135
 469 023e 2E21     		movs	r1, #46
 470 0240 1820     		movs	r0, #24
 471 0242 FFF7FEFF 		bl	I2C_Peripheral_WriteRegister
 472              	.LVL89:
 340:main.c        ****                                              LIS3DH_FIFO_CTRL_REG,
 341:main.c        ****                                              fifo_ctrl_reg);
 342:main.c        ****             //sprintf(message, "Enter FIFO mode!!\r\n");
 343:main.c        ****             //UART_Debug_PutString(message);
 344:main.c        ****             flag_mode=0;
 473              		.loc 1 344 0
 474 0246 4FF0000A 		mov	r10, #0
 475 024a 7DE1     		b	.L28
 476              	.L33:
 477              		.align	2
 478              	.L32:
 479 024c 00000000 		.word	period_red
 480 0250 00000000 		.word	period_green
 481 0254 00000000 		.word	period_blue
 482 0258 00000000 		.word	counter_red
 483 025c 00000000 		.word	counter_green
 484 0260 00000000 		.word	counter_blue
 485 0264 00000000 		.word	ISR_TIMER
 486 0268 00000000 		.word	ISR_LIS3DH_FIFO_WATERMARK
 487 026c 00000000 		.word	.LC0
 488 0270 20000000 		.word	.LC1
 489 0274 48000000 		.word	.LC2
 490 0278 6C000000 		.word	.LC3
 491 027c 88000000 		.word	.LC4
 492 0280 C4000000 		.word	.LC5
 493 0284 E4000000 		.word	.LC6
 494 0288 20010000 		.word	.LC7
 495 028c 3C010000 		.word	.LC8
 496 0290 74010000 		.word	.LC9
 497 0294 B0010000 		.word	.LC10
 498 0298 E8010000 		.word	.LC11
 499 029c 08020000 		.word	.LC12
 500 02a0 44020000 		.word	.LC13
 501 02a4 78020000 		.word	.LC14
 502 02a8 BC020000 		.word	.LC15
 503 02ac F8020000 		.word	.LC16
 504 02b0 3C030000 		.word	.LC17
 505              	.LVL90:
ARM GAS  C:\Users\Riccardo\AppData\Local\Temp\ccaZwK1F.s 			page 16


 506              	.L29:
 345:main.c        ****         }
 346:main.c        ****         
 347:main.c        ****         
 348:main.c        ****         
 349:main.c        ****        /*if (flag_mode ==0){
 350:main.c        ****         error = I2C_Peripheral_ReadRegister(LIS3DH_DEVICE_ADDRESS,
 351:main.c        ****                                         LIS3DH_FIFO_SRC_REG_3,
 352:main.c        ****                                         &overrun_reg);
 353:main.c        ****         }
 354:main.c        ****         
 355:main.c        ****         if ((overrun_reg & 0x40)==0x40){
 356:main.c        ****             
 357:main.c        ****             flag_overrun = 1;   
 358:main.c        ****             sprintf(message, "Overrun!!\r\n");
 359:main.c        ****             UART_Debug_PutString(message);
 360:main.c        ****             
 361:main.c        ****         }*/ 
 362:main.c        ****         
 363:main.c        ****         while (OVR_FLAG){
 364:main.c        ****             
 365:main.c        ****             
 366:main.c        ****              //sprintf(message, "Enter while!!\r\n");
 367:main.c        ****             //UART_Debug_PutString(message);
 368:main.c        ****             error = I2C_Peripheral_ReadRegisterMulti(LIS3DH_DEVICE_ADDRESS,
 507              		.loc 1 368 0
 508 02b4 03AB     		add	r3, sp, #12
 509 02b6 0222     		movs	r2, #2
 510 02b8 2821     		movs	r1, #40
 511 02ba 1820     		movs	r0, #24
 512 02bc FFF7FEFF 		bl	I2C_Peripheral_ReadRegisterMulti
 513              	.LVL91:
 369:main.c        ****                                             LIS3DH_OUT_X_L,
 370:main.c        ****                                             2,
 371:main.c        ****                                             &X_Data[0]);
 372:main.c        ****             
 373:main.c        ****             error = I2C_Peripheral_ReadRegisterMulti(LIS3DH_DEVICE_ADDRESS,
 514              		.loc 1 373 0
 515 02c0 02AB     		add	r3, sp, #8
 516 02c2 0222     		movs	r2, #2
 517 02c4 2A21     		movs	r1, #42
 518 02c6 1820     		movs	r0, #24
 519 02c8 FFF7FEFF 		bl	I2C_Peripheral_ReadRegisterMulti
 520              	.LVL92:
 374:main.c        ****                                             LIS3DH_OUT_Y_L,
 375:main.c        ****                                             2,
 376:main.c        ****                                             &Y_Data[0]);
 377:main.c        ****             
 378:main.c        ****             error = I2C_Peripheral_ReadRegisterMulti(LIS3DH_DEVICE_ADDRESS,
 521              		.loc 1 378 0
 522 02cc 01AB     		add	r3, sp, #4
 523 02ce 0222     		movs	r2, #2
 524 02d0 2C21     		movs	r1, #44
 525 02d2 1820     		movs	r0, #24
 526 02d4 FFF7FEFF 		bl	I2C_Peripheral_ReadRegisterMulti
 527              	.LVL93:
 379:main.c        ****                                             LIS3DH_OUT_Z_L,
ARM GAS  C:\Users\Riccardo\AppData\Local\Temp\ccaZwK1F.s 			page 17


 380:main.c        ****                                             2,
 381:main.c        ****                                             &Z_Data[0]);
 382:main.c        ****             
 383:main.c        ****             if(error == NO_ERROR)
 528              		.loc 1 383 0
 529 02d8 0028     		cmp	r0, #0
 530 02da 40F09780 		bne	.L27
 384:main.c        ****               {
 385:main.c        ****                Out_X = (int16)((X_Data[0] | (X_Data[1]<<8)))>>6;//out_x in digit (10bit)
 531              		.loc 1 385 0
 532 02de 9DF80C30 		ldrb	r3, [sp, #12]	@ zero_extendqisi2
 533 02e2 9DF80D50 		ldrb	r5, [sp, #13]	@ zero_extendqisi2
 534 02e6 43EA0525 		orr	r5, r3, r5, lsl #8
 535 02ea 45F38915 		sbfx	r5, r5, #6, #10
 536              	.LVL94:
 386:main.c        ****                Out_X_mg = Out_X*4;//out_x in mg, the sensitivity is 4mg/digit in this operation mod
 537              		.loc 1 386 0
 538 02ee AD00     		lsls	r5, r5, #2
 539              	.LVL95:
 540 02f0 ADB2     		uxth	r5, r5
 541              	.LVL96:
 387:main.c        ****                Out_X_ms2 = Out_X_mg*9.81/1000;//out_x in m/s^2 (float variable)
 542              		.loc 1 387 0
 543 02f2 28B2     		sxth	r0, r5
 544              	.LVL97:
 545 02f4 FFF7FEFF 		bl	__aeabi_i2d
 546              	.LVL98:
 547 02f8 97A3     		adr	r3, .L34
 548 02fa D3E90023 		ldrd	r2, [r3]
 549 02fe FFF7FEFF 		bl	__aeabi_dmul
 550              	.LVL99:
 551 0302 0022     		movs	r2, #0
 552 0304 9C4B     		ldr	r3, .L34+32
 553 0306 FFF7FEFF 		bl	__aeabi_ddiv
 554              	.LVL100:
 555 030a FFF7FEFF 		bl	__aeabi_d2f
 556              	.LVL101:
 388:main.c        **** 
 389:main.c        ****      //cast of the float variable to int that mantains the first 3 decimals. now the value is in mm
 390:main.c        ****                Out_X_mms2 = (int32)((Out_X_ms2*1000));//int32 needed since this value can exceed th
 557              		.loc 1 390 0
 558 030e 9B49     		ldr	r1, .L34+36
 559 0310 FFF7FEFF 		bl	__aeabi_fmul
 560              	.LVL102:
 561 0314 FFF7FEFF 		bl	__aeabi_f2iz
 562              	.LVL103:
 391:main.c        ****                OutArray[1] = (uint8_t)(Out_X_mms2 & 0xFF);
 563              		.loc 1 391 0
 564 0318 C7B2     		uxtb	r7, r0
 565 031a 8DF81170 		strb	r7, [sp, #17]
 392:main.c        ****                OutArray[2] = (uint8_t)(Out_X_mms2 >> 8);
 566              		.loc 1 392 0
 567 031e C0F30723 		ubfx	r3, r0, #8, #8
 568 0322 8DF81230 		strb	r3, [sp, #18]
 393:main.c        ****                OutArray[3] = (uint8_t)(Out_X_mms2 >> 16);
 569              		.loc 1 393 0
 570 0326 C0F30743 		ubfx	r3, r0, #16, #8
ARM GAS  C:\Users\Riccardo\AppData\Local\Temp\ccaZwK1F.s 			page 18


 571 032a 8DF81330 		strb	r3, [sp, #19]
 394:main.c        ****                OutArray[4] = (uint8_t)(Out_X_mms2 >> 24);
 572              		.loc 1 394 0
 573 032e 000E     		lsrs	r0, r0, #24
 574              	.LVL104:
 575 0330 8DF81400 		strb	r0, [sp, #20]
 395:main.c        ****             
 396:main.c        ****                mean_X_mg = mean_X_mg+Out_X_mg;
 576              		.loc 1 396 0
 577 0334 A844     		add	r8, r8, r5
 578              	.LVL105:
 579 0336 0FFA88F8 		sxth	r8, r8
 580              	.LVL106:
 397:main.c        ****              
 398:main.c        ****                
 399:main.c        ****                Out_Y = (int16)((Y_Data[0] | (Y_Data[1]<<8)))>>6;//out_y in digit (10bit)
 581              		.loc 1 399 0
 582 033a 9DF80830 		ldrb	r3, [sp, #8]	@ zero_extendqisi2
 583 033e 9DF80950 		ldrb	r5, [sp, #9]	@ zero_extendqisi2
 584              	.LVL107:
 585 0342 43EA0525 		orr	r5, r3, r5, lsl #8
 586 0346 45F38915 		sbfx	r5, r5, #6, #10
 587              	.LVL108:
 400:main.c        ****                Out_Y_mg = Out_Y*4;//out_y in mg (13 bits needed)
 588              		.loc 1 400 0
 589 034a AD00     		lsls	r5, r5, #2
 590              	.LVL109:
 591 034c ADB2     		uxth	r5, r5
 592              	.LVL110:
 401:main.c        ****                Out_Y_ms2 = Out_Y_mg*9.81/1000;
 593              		.loc 1 401 0
 594 034e 28B2     		sxth	r0, r5
 595 0350 FFF7FEFF 		bl	__aeabi_i2d
 596              	.LVL111:
 597 0354 80A3     		adr	r3, .L34
 598 0356 D3E90023 		ldrd	r2, [r3]
 599 035a FFF7FEFF 		bl	__aeabi_dmul
 600              	.LVL112:
 601 035e 0022     		movs	r2, #0
 602 0360 854B     		ldr	r3, .L34+32
 603 0362 FFF7FEFF 		bl	__aeabi_ddiv
 604              	.LVL113:
 605 0366 FFF7FEFF 		bl	__aeabi_d2f
 606              	.LVL114:
 402:main.c        ****                Out_Y_mms2 = (int32)((Out_Y_ms2*1000));
 607              		.loc 1 402 0
 608 036a 8449     		ldr	r1, .L34+36
 609 036c FFF7FEFF 		bl	__aeabi_fmul
 610              	.LVL115:
 611 0370 FFF7FEFF 		bl	__aeabi_f2iz
 612              	.LVL116:
 403:main.c        ****                OutArray[5] = (uint8_t)(Out_Y_mms2 & 0xFF);
 613              		.loc 1 403 0
 614 0374 8DF81500 		strb	r0, [sp, #21]
 404:main.c        ****                OutArray[6] = (uint8_t)(Out_Y_mms2 >> 8);
 615              		.loc 1 404 0
 616 0378 C0F30723 		ubfx	r3, r0, #8, #8
ARM GAS  C:\Users\Riccardo\AppData\Local\Temp\ccaZwK1F.s 			page 19


 617 037c 8DF81630 		strb	r3, [sp, #22]
 405:main.c        ****                OutArray[7] = (uint8_t)(Out_Y_mms2 >> 16);
 618              		.loc 1 405 0
 619 0380 C0F30743 		ubfx	r3, r0, #16, #8
 620 0384 8DF81730 		strb	r3, [sp, #23]
 406:main.c        ****                OutArray[8] = (uint8_t)(Out_Y_mms2 >> 24);
 621              		.loc 1 406 0
 622 0388 000E     		lsrs	r0, r0, #24
 623              	.LVL117:
 624 038a 8DF81800 		strb	r0, [sp, #24]
 407:main.c        ****             
 408:main.c        ****                mean_Y_mg = mean_Y_mg+Out_Y_mg;
 625              		.loc 1 408 0
 626 038e 2E44     		add	r6, r6, r5
 627              	.LVL118:
 628 0390 36B2     		sxth	r6, r6
 629              	.LVL119:
 409:main.c        ****             
 410:main.c        ****                Out_Z = (int16)((Z_Data[0] | (Z_Data[1]<<8)))>>6;//out_z in digit (10bit)
 630              		.loc 1 410 0
 631 0392 9DF80430 		ldrb	r3, [sp, #4]	@ zero_extendqisi2
 632 0396 9DF80550 		ldrb	r5, [sp, #5]	@ zero_extendqisi2
 633              	.LVL120:
 634 039a 43EA0525 		orr	r5, r3, r5, lsl #8
 635 039e 45F38915 		sbfx	r5, r5, #6, #10
 636              	.LVL121:
 411:main.c        ****                Out_Z_mg= Out_Z*4;//out_z in mg (13 bits needed)
 637              		.loc 1 411 0
 638 03a2 AD00     		lsls	r5, r5, #2
 639              	.LVL122:
 640 03a4 ADB2     		uxth	r5, r5
 641              	.LVL123:
 412:main.c        ****                Out_Z_ms2=Out_Z_mg*9.81/1000;
 642              		.loc 1 412 0
 643 03a6 28B2     		sxth	r0, r5
 644 03a8 FFF7FEFF 		bl	__aeabi_i2d
 645              	.LVL124:
 646 03ac 6AA3     		adr	r3, .L34
 647 03ae D3E90023 		ldrd	r2, [r3]
 648 03b2 FFF7FEFF 		bl	__aeabi_dmul
 649              	.LVL125:
 650 03b6 0022     		movs	r2, #0
 651 03b8 6F4B     		ldr	r3, .L34+32
 652 03ba FFF7FEFF 		bl	__aeabi_ddiv
 653              	.LVL126:
 654 03be FFF7FEFF 		bl	__aeabi_d2f
 655              	.LVL127:
 413:main.c        ****                Out_Z_mms2= (int32)((Out_Z_ms2*1000));
 656              		.loc 1 413 0
 657 03c2 6E49     		ldr	r1, .L34+36
 658 03c4 FFF7FEFF 		bl	__aeabi_fmul
 659              	.LVL128:
 660 03c8 FFF7FEFF 		bl	__aeabi_f2iz
 661              	.LVL129:
 414:main.c        ****                OutArray[9] = (uint8_t)(Out_X_mms2 & 0xFF);
 662              		.loc 1 414 0
 663 03cc 8DF81970 		strb	r7, [sp, #25]
ARM GAS  C:\Users\Riccardo\AppData\Local\Temp\ccaZwK1F.s 			page 20


 415:main.c        ****                OutArray[10] = (uint8_t)(Out_Z_mms2>> 8);
 664              		.loc 1 415 0
 665 03d0 C0F30723 		ubfx	r3, r0, #8, #8
 666 03d4 8DF81A30 		strb	r3, [sp, #26]
 416:main.c        ****                OutArray[11] = (uint8_t)(Out_Z_mms2>> 16);
 667              		.loc 1 416 0
 668 03d8 C0F30743 		ubfx	r3, r0, #16, #8
 669 03dc 8DF81B30 		strb	r3, [sp, #27]
 417:main.c        ****                OutArray[12] = (uint8_t) (Out_Z_mms2 >> 24);
 670              		.loc 1 417 0
 671 03e0 000E     		lsrs	r0, r0, #24
 672              	.LVL130:
 673 03e2 8DF81C00 		strb	r0, [sp, #28]
 418:main.c        ****             
 419:main.c        ****                mean_Z_mg = mean_Z_mg+Out_Z_mg;
 674              		.loc 1 419 0
 675 03e6 A944     		add	r9, r9, r5
 676              	.LVL131:
 677 03e8 0FFA89F9 		sxth	r9, r9
 678              	.LVL132:
 420:main.c        ****             
 421:main.c        ****             
 422:main.c        ****                //sprintf(message, "X: %d    Y: %d     Z:%d\r\n",Out_X_mg,Out_Y_mg,Out_Z_mg);
 423:main.c        ****                //UART_Debug_PutString(message);
 424:main.c        ****                error = I2C_Peripheral_ReadRegister(LIS3DH_DEVICE_ADDRESS,
 679              		.loc 1 424 0
 680 03ec 0DF10302 		add	r2, sp, #3
 681 03f0 2F21     		movs	r1, #47
 682 03f2 1820     		movs	r0, #24
 683 03f4 FFF7FEFF 		bl	I2C_Peripheral_ReadRegister
 684              	.LVL133:
 425:main.c        ****                                         LIS3DH_FIFO_SRC_REG_3,
 426:main.c        ****                                         &fss);
 427:main.c        ****                fss= fss & (0b00011111);
 685              		.loc 1 427 0
 686 03f8 9DF80330 		ldrb	r3, [sp, #3]	@ zero_extendqisi2
 687 03fc 03F01F03 		and	r3, r3, #31
 688 0400 8DF80330 		strb	r3, [sp, #3]
 428:main.c        ****             //sprintf(message, "Unread samples: %d\r\n",fss);
 429:main.c        ****                //UART_Debug_PutString(message);
 430:main.c        ****                UART_Debug_PutArray(OutArray, 14);
 689              		.loc 1 430 0
 690 0404 0E21     		movs	r1, #14
 691 0406 04A8     		add	r0, sp, #16
 692 0408 FFF7FEFF 		bl	UART_Debug_PutArray
 693              	.LVL134:
 694              	.L27:
 431:main.c        ****             }
 432:main.c        ****             
 433:main.c        ****             counter++;
 695              		.loc 1 433 0
 696 040c 0134     		adds	r4, r4, #1
 697              	.LVL135:
 698 040e E4B2     		uxtb	r4, r4
 699              	.LVL136:
 434:main.c        ****             
 435:main.c        ****             /*error = I2C_Peripheral_ReadRegister(LIS3DH_DEVICE_ADDRESS,
ARM GAS  C:\Users\Riccardo\AppData\Local\Temp\ccaZwK1F.s 			page 21


 436:main.c        ****                                         LIS3DH_FIFO_SRC_REG_3,
 437:main.c        ****                                         &wmk_reg);//&empty_reg);*/
 438:main.c        ****             
 439:main.c        ****             if (fss==0) {
 700              		.loc 1 439 0
 701 0410 9DF80330 		ldrb	r3, [sp, #3]	@ zero_extendqisi2
 702 0414 002B     		cmp	r3, #0
 703 0416 40F09780 		bne	.L28
 704              	.LBB3:
 440:main.c        ****                 
 441:main.c        ****                 mean_X_mg = mean_X_mg/counter;
 705              		.loc 1 441 0
 706 041a 98FBF4F0 		sdiv	r0, r8, r4
 707              	.LVL137:
 442:main.c        ****                 mean_Y_mg = mean_Y_mg/counter;
 708              		.loc 1 442 0
 709 041e 96FBF4FA 		sdiv	r10, r6, r4
 710              	.LVL138:
 443:main.c        ****                 mean_Z_mg = mean_Z_mg/counter;
 711              		.loc 1 443 0
 712 0422 99FBF4F4 		sdiv	r4, r9, r4
 713              	.LVL139:
 444:main.c        ****                 
 445:main.c        ****                 //sprintf(message, "meanX: %d    meanY: %d     meanZ:%d\r\n",mean_X_mg,mean_Y_mg,me
 446:main.c        ****                 //UART_Debug_PutString(message);
 447:main.c        ****                 
 448:main.c        ****                 mean_X_mg = abs(mean_X_mg);
 714              		.loc 1 448 0
 715 0426 0028     		cmp	r0, #0
 716 0428 B8BF     		it	lt
 717 042a 4042     		rsblt	r0, r0, #0
 718              	.LVL140:
 449:main.c        ****                 mean_Y_mg = abs(mean_Y_mg);
 719              		.loc 1 449 0
 720 042c BAF1000F 		cmp	r10, #0
 721 0430 B8BF     		it	lt
 722 0432 CAF1000A 		rsblt	r10, r10, #0
 723              	.LVL141:
 724 0436 0FFA8AFA 		sxth	r10, r10
 725              	.LVL142:
 450:main.c        ****                 mean_Z_mg = abs(mean_Z_mg);
 726              		.loc 1 450 0
 727 043a 002C     		cmp	r4, #0
 728 043c B8BF     		it	lt
 729 043e 6442     		rsblt	r4, r4, #0
 730              	.LVL143:
 731 0440 24B2     		sxth	r4, r4
 732              	.LVL144:
 451:main.c        ****                 
 452:main.c        ****                 //sprintf(message, "abs meanX: %d    abs meanY: %d     abs meanZ:%d\r\n",mean_X_mg,
 453:main.c        ****                 //UART_Debug_PutString(message);
 454:main.c        ****                 
 455:main.c        ****                 //period_green = -49*mean_X_mg/960+1249/12;
 456:main.c        ****                 //period_blue = -49*mean_Y_mg/960+1249/12;
 457:main.c        ****                 //period_red =-49*mean_Z_mg/960+1249/12;
 458:main.c        ****                 
 459:main.c        ****                 period_green = 0.0001*mean_X_mg*mean_X_mg-0.4*mean_X_mg+402;
ARM GAS  C:\Users\Riccardo\AppData\Local\Temp\ccaZwK1F.s 			page 22


 733              		.loc 1 459 0
 734 0442 00B2     		sxth	r0, r0
 735 0444 FFF7FEFF 		bl	__aeabi_i2d
 736              	.LVL145:
 737 0448 0646     		mov	r6, r0
 738 044a 0F46     		mov	r7, r1
 739 044c 44A3     		adr	r3, .L34+8
 740 044e D3E90023 		ldrd	r2, [r3]
 741 0452 FFF7FEFF 		bl	__aeabi_dmul
 742              	.LVL146:
 743 0456 0246     		mov	r2, r0
 744 0458 0B46     		mov	r3, r1
 745 045a 3046     		mov	r0, r6
 746 045c 3946     		mov	r1, r7
 747 045e FFF7FEFF 		bl	__aeabi_dmul
 748              	.LVL147:
 749 0462 8046     		mov	r8, r0
 750 0464 8946     		mov	r9, r1
 751 0466 40A3     		adr	r3, .L34+16
 752 0468 D3E90023 		ldrd	r2, [r3]
 753 046c 3046     		mov	r0, r6
 754 046e 3946     		mov	r1, r7
 755 0470 FFF7FEFF 		bl	__aeabi_dmul
 756              	.LVL148:
 757 0474 0246     		mov	r2, r0
 758 0476 0B46     		mov	r3, r1
 759 0478 4046     		mov	r0, r8
 760 047a 4946     		mov	r1, r9
 761 047c FFF7FEFF 		bl	__aeabi_dsub
 762              	.LVL149:
 763 0480 3BA3     		adr	r3, .L34+24
 764 0482 D3E90023 		ldrd	r2, [r3]
 765 0486 FFF7FEFF 		bl	__aeabi_dadd
 766              	.LVL150:
 767 048a FFF7FEFF 		bl	__aeabi_d2uiz
 768              	.LVL151:
 769 048e 80B2     		uxth	r0, r0
 770 0490 3B4B     		ldr	r3, .L34+40
 771 0492 1880     		strh	r0, [r3]	@ movhi
 460:main.c        ****                 period_blue = 0.0001*mean_Y_mg*mean_Y_mg-0.4*mean_Y_mg+402;
 772              		.loc 1 460 0
 773 0494 5046     		mov	r0, r10
 774 0496 FFF7FEFF 		bl	__aeabi_i2d
 775              	.LVL152:
 776 049a 0646     		mov	r6, r0
 777 049c 0F46     		mov	r7, r1
 778 049e 30A3     		adr	r3, .L34+8
 779 04a0 D3E90023 		ldrd	r2, [r3]
 780 04a4 FFF7FEFF 		bl	__aeabi_dmul
 781              	.LVL153:
 782 04a8 0246     		mov	r2, r0
 783 04aa 0B46     		mov	r3, r1
 784 04ac 3046     		mov	r0, r6
 785 04ae 3946     		mov	r1, r7
 786 04b0 FFF7FEFF 		bl	__aeabi_dmul
 787              	.LVL154:
 788 04b4 8046     		mov	r8, r0
ARM GAS  C:\Users\Riccardo\AppData\Local\Temp\ccaZwK1F.s 			page 23


 789 04b6 8946     		mov	r9, r1
 790 04b8 2BA3     		adr	r3, .L34+16
 791 04ba D3E90023 		ldrd	r2, [r3]
 792 04be 3046     		mov	r0, r6
 793 04c0 3946     		mov	r1, r7
 794 04c2 FFF7FEFF 		bl	__aeabi_dmul
 795              	.LVL155:
 796 04c6 0246     		mov	r2, r0
 797 04c8 0B46     		mov	r3, r1
 798 04ca 4046     		mov	r0, r8
 799 04cc 4946     		mov	r1, r9
 800 04ce FFF7FEFF 		bl	__aeabi_dsub
 801              	.LVL156:
 802 04d2 27A3     		adr	r3, .L34+24
 803 04d4 D3E90023 		ldrd	r2, [r3]
 804 04d8 FFF7FEFF 		bl	__aeabi_dadd
 805              	.LVL157:
 806 04dc FFF7FEFF 		bl	__aeabi_d2uiz
 807              	.LVL158:
 808 04e0 80B2     		uxth	r0, r0
 809 04e2 284B     		ldr	r3, .L34+44
 810 04e4 1880     		strh	r0, [r3]	@ movhi
 461:main.c        ****                 period_red = 0.0001*mean_Z_mg*mean_Z_mg-0.4*mean_Z_mg+402;
 811              		.loc 1 461 0
 812 04e6 2046     		mov	r0, r4
 813 04e8 FFF7FEFF 		bl	__aeabi_i2d
 814              	.LVL159:
 815 04ec 0446     		mov	r4, r0
 816              	.LVL160:
 817 04ee 0D46     		mov	r5, r1
 818 04f0 1BA3     		adr	r3, .L34+8
 819 04f2 D3E90023 		ldrd	r2, [r3]
 820 04f6 FFF7FEFF 		bl	__aeabi_dmul
 821              	.LVL161:
 822 04fa 0246     		mov	r2, r0
 823 04fc 0B46     		mov	r3, r1
 824 04fe 2046     		mov	r0, r4
 825 0500 2946     		mov	r1, r5
 826 0502 FFF7FEFF 		bl	__aeabi_dmul
 827              	.LVL162:
 828 0506 0646     		mov	r6, r0
 829 0508 0F46     		mov	r7, r1
 830 050a 17A3     		adr	r3, .L34+16
 831 050c D3E90023 		ldrd	r2, [r3]
 832 0510 2046     		mov	r0, r4
 833 0512 2946     		mov	r1, r5
 834 0514 FFF7FEFF 		bl	__aeabi_dmul
 835              	.LVL163:
 836 0518 0246     		mov	r2, r0
 837 051a 0B46     		mov	r3, r1
 838 051c 3046     		mov	r0, r6
 839 051e 3946     		mov	r1, r7
 840 0520 FFF7FEFF 		bl	__aeabi_dsub
 841              	.LVL164:
 842 0524 12A3     		adr	r3, .L34+24
 843 0526 D3E90023 		ldrd	r2, [r3]
 844 052a FFF7FEFF 		bl	__aeabi_dadd
ARM GAS  C:\Users\Riccardo\AppData\Local\Temp\ccaZwK1F.s 			page 24


 845              	.LVL165:
 846 052e FFF7FEFF 		bl	__aeabi_d2uiz
 847              	.LVL166:
 848 0532 80B2     		uxth	r0, r0
 849 0534 144B     		ldr	r3, .L34+48
 850 0536 1880     		strh	r0, [r3]	@ movhi
 851              	.LVL167:
 462:main.c        ****                 
 463:main.c        ****                 
 464:main.c        ****                 //sprintf(message, "fq_green: %d    fq_blue: %d     fq_red:%d\r\n",period_green,per
 465:main.c        ****                 //UART_Debug_PutString(message);
 466:main.c        ****                 
 467:main.c        ****                 mean_X_mg=0;
 468:main.c        ****                 mean_Y_mg=0;
 469:main.c        ****                 mean_Z_mg=0;
 470:main.c        ****                 
 471:main.c        ****                 counter = 0;
 472:main.c        ****                 
 473:main.c        ****                 
 474:main.c        ****                 
 475:main.c        ****                 OVR_FLAG=0;
 852              		.loc 1 475 0
 853 0538 0024     		movs	r4, #0
 854 053a 144B     		ldr	r3, .L34+52
 855 053c 1C70     		strb	r4, [r3]
 856              	.LVL168:
 467:main.c        ****                 mean_Y_mg=0;
 857              		.loc 1 467 0
 858 053e A046     		mov	r8, r4
 468:main.c        ****                 mean_Z_mg=0;
 859              		.loc 1 468 0
 860 0540 2646     		mov	r6, r4
 469:main.c        ****                 
 861              		.loc 1 469 0
 862 0542 A146     		mov	r9, r4
 476:main.c        ****                 flag_mode=1;
 863              		.loc 1 476 0
 864 0544 4FF0010A 		mov	r10, #1
 865              	.LVL169:
 866              	.L28:
 867              	.LBE3:
 363:main.c        ****             
 868              		.loc 1 363 0
 869 0548 104B     		ldr	r3, .L34+52
 870 054a 1B78     		ldrb	r3, [r3]	@ zero_extendqisi2
 871 054c 13F0FF0F 		tst	r3, #255
 872 0550 7FF4B0AE 		bne	.L29
 873 0554 6EE6     		b	.L30
 874              	.L35:
 875 0556 00BF     		.align	3
 876              	.L34:
 877 0558 1F85EB51 		.word	1374389535
 878 055c B89E2340 		.word	1076076216
 879 0560 2D431CEB 		.word	-350469331
 880 0564 E2361A3F 		.word	1058682594
 881 0568 9A999999 		.word	-1717986918
 882 056c 9999D93F 		.word	1071225241
ARM GAS  C:\Users\Riccardo\AppData\Local\Temp\ccaZwK1F.s 			page 25


 883 0570 00000000 		.word	0
 884 0574 00207940 		.word	1081679872
 885 0578 00408F40 		.word	1083129856
 886 057c 00007A44 		.word	1148846080
 887 0580 00000000 		.word	period_green
 888 0584 00000000 		.word	period_blue
 889 0588 00000000 		.word	period_red
 890 058c 00000000 		.word	OVR_FLAG
 891              		.cfi_endproc
 892              	.LFE64:
 893              		.size	main, .-main
 894              		.comm	counter_blue,2,2
 895              		.comm	counter_green,2,2
 896              		.comm	counter_red,2,2
 897              		.comm	period_blue,2,2
 898              		.comm	period_green,2,2
 899              		.comm	period_red,2,2
 900              		.comm	OVR_FLAG,1,1
 901              		.section	.rodata.str1.4,"aMS",%progbits,1
 902              		.align	2
 903              	.LC0:
 904 0000 44657669 		.ascii	"Device 0x%02X is connected\015\012\000"
 904      63652030 
 904      78253032 
 904      58206973 
 904      20636F6E 
 905 001d 000000   		.space	3
 906              	.LC1:
 907 0020 57484F20 		.ascii	"WHO AM I REG: 0x%02X [Expected: 0x33]\015\012\000"
 907      414D2049 
 907      20524547 
 907      3A203078 
 907      25303258 
 908              	.LC2:
 909 0048 4572726F 		.ascii	"Error occurred during I2C comm\015\012\000"
 909      72206F63 
 909      63757272 
 909      65642064 
 909      7572696E 
 910 0069 000000   		.space	3
 911              	.LC3:
 912 006c 53544154 		.ascii	"STATUS REGISTER: 0x%02X\015\012\000"
 912      55532052 
 912      45474953 
 912      5445523A 
 912      20307825 
 913 0086 0000     		.space	2
 914              	.LC4:
 915 0088 4572726F 		.ascii	"Error occurred during I2C comm to read status regis"
 915      72206F63 
 915      63757272 
 915      65642064 
 915      7572696E 
 916 00bb 7465720D 		.ascii	"ter\015\012\000"
 916      0A00
 917 00c1 000000   		.space	3
 918              	.LC5:
ARM GAS  C:\Users\Riccardo\AppData\Local\Temp\ccaZwK1F.s 			page 26


 919 00c4 434F4E54 		.ascii	"CONTROL REGISTER 1: 0x%02X\015\012\000"
 919      524F4C20 
 919      52454749 
 919      53544552 
 919      20313A20 
 920 00e1 000000   		.space	3
 921              	.LC6:
 922 00e4 4572726F 		.ascii	"Error occurred during I2C comm to read control regi"
 922      72206F63 
 922      63757272 
 922      65642064 
 922      7572696E 
 923 0117 73746572 		.ascii	"ster 1\015\012\000"
 923      20310D0A 
 923      00
 924              	.LC7:
 925 0120 0D0A5772 		.ascii	"\015\012Writing new values..\015\012\000"
 925      6974696E 
 925      67206E65 
 925      77207661 
 925      6C756573 
 926 0139 000000   		.space	3
 927              	.LC8:
 928 013c 434F4E54 		.ascii	"CONTROL REGISTER 1 successfully written as: 0x%02X\015"
 928      524F4C20 
 928      52454749 
 928      53544552 
 928      20312073 
 929 016f 0A00     		.ascii	"\012\000"
 930 0171 000000   		.space	3
 931              	.LC9:
 932 0174 4572726F 		.ascii	"Error occurred during I2C comm to set control regis"
 932      72206F63 
 932      63757272 
 932      65642064 
 932      7572696E 
 933 01a7 74657220 		.ascii	"ter 1\015\012\000"
 933      310D0A00 
 934 01af 00       		.space	1
 935              	.LC10:
 936 01b0 434F4E54 		.ascii	"CONTROL REGISTER 1 after overwrite operation: 0x%02"
 936      524F4C20 
 936      52454749 
 936      53544552 
 936      20312061 
 937 01e3 580D0A00 		.ascii	"X\015\012\000"
 938 01e7 00       		.space	1
 939              	.LC11:
 940 01e8 434F4E54 		.ascii	"CONTROL REGISTER 4: 0x%02X\015\012\000"
 940      524F4C20 
 940      52454749 
 940      53544552 
 940      20343A20 
 941 0205 000000   		.space	3
 942              	.LC12:
 943 0208 4572726F 		.ascii	"Error occurred during I2C comm to read control regi"
 943      72206F63 
ARM GAS  C:\Users\Riccardo\AppData\Local\Temp\ccaZwK1F.s 			page 27


 943      63757272 
 943      65642064 
 943      7572696E 
 944 023b 73746572 		.ascii	"ster4\015\012\000"
 944      340D0A00 
 945 0243 00       		.space	1
 946              	.LC13:
 947 0244 434F4E54 		.ascii	"CONTROL REGISTER 4 after being updated: 0x%02X\015\012"
 947      524F4C20 
 947      52454749 
 947      53544552 
 947      20342061 
 948 0274 00       		.ascii	"\000"
 949 0275 000000   		.space	3
 950              	.LC14:
 951 0278 434F4E54 		.ascii	"CONTROL REGISTER 5 FIFO ENABLE successfully written"
 951      524F4C20 
 951      52454749 
 951      53544552 
 951      20352046 
 952 02ab 2061733A 		.ascii	" as: 0x%02X\015\012\000"
 952      20307825 
 952      3032580D 
 952      0A00
 953 02b9 000000   		.space	3
 954              	.LC15:
 955 02bc 4572726F 		.ascii	"Error occurred during I2C comm to set control regis"
 955      72206F63 
 955      63757272 
 955      65642064 
 955      7572696E 
 956 02ef 74657220 		.ascii	"ter 5\015\012\000"
 956      350D0A00 
 957 02f7 00       		.space	1
 958              	.LC16:
 959 02f8 434F4E54 		.ascii	"CONTROL REGISTER 5 BYPASS MODE successfully written"
 959      524F4C20 
 959      52454749 
 959      53544552 
 959      20352042 
 960 032b 2061733A 		.ascii	" as: 0x%02X\015\012\000"
 960      20307825 
 960      3032580D 
 960      0A00
 961 0339 000000   		.space	3
 962              	.LC17:
 963 033c 434F4E54 		.ascii	"CONTROL REGISTER 3 OVERRUN INT ENABLE successfully "
 963      524F4C20 
 963      52454749 
 963      53544552 
 963      2033204F 
 964 036f 77726974 		.ascii	"written as: 0x%02X\015\012\000"
 964      74656E20 
 964      61733A20 
 964      30782530 
 964      32580D0A 
 965              		.text
ARM GAS  C:\Users\Riccardo\AppData\Local\Temp\ccaZwK1F.s 			page 28


 966              	.Letext0:
 967              		.file 2 "c:\\program files (x86)\\cypress\\psoc creator\\4.3\\psoc creator\\import\\gnu\\arm\\5.4.
 968              		.file 3 "c:\\program files (x86)\\cypress\\psoc creator\\4.3\\psoc creator\\import\\gnu\\arm\\5.4.
 969              		.file 4 "Generated_Source\\PSoC5/cytypes.h"
 970              		.file 5 "ErrorCodes.h"
 971              		.file 6 "Generated_Source\\PSoC5/core_cm3.h"
 972              		.file 7 "Interrupt_Routines.h"
 973              		.file 8 "I2C_Interface.h"
 974              		.file 9 "c:\\program files (x86)\\cypress\\psoc creator\\4.3\\psoc creator\\import\\gnu\\arm\\5.4.
 975              		.file 10 "Generated_Source\\PSoC5/UART_Debug.h"
 976              		.file 11 "Generated_Source\\PSoC5/Timer.h"
 977              		.file 12 "Generated_Source\\PSoC5/CS_LIS3DH.h"
 978              		.file 13 "Generated_Source\\PSoC5/SDO_LIS3DH.h"
 979              		.file 14 "Generated_Source\\PSoC5/isr_TIMER.h"
 980              		.file 15 "Generated_Source\\PSoC5/isr_LIS3DH.h"
 981              		.file 16 "Generated_Source\\PSoC5/CyLib.h"
 982              		.file 17 "<built-in>"