ARM GAS  C:\Users\Riccardo\AppData\Local\Temp\cchjS5fa.s 			page 1


   1              		.syntax unified
   2              		.cpu cortex-m3
   3              		.fpu softvfp
   4              		.eabi_attribute 20, 1
   5              		.eabi_attribute 21, 1
   6              		.eabi_attribute 23, 3
   7              		.eabi_attribute 24, 1
   8              		.eabi_attribute 25, 1
   9              		.eabi_attribute 26, 1
  10              		.eabi_attribute 30, 1
  11              		.eabi_attribute 34, 1
  12              		.eabi_attribute 18, 4
  13              		.thumb
  14              		.syntax unified
  15              		.file	"RGB_driver.c"
  16              		.text
  17              	.Ltext0:
  18              		.cfi_sections	.debug_frame
  19              		.section	.text.RGB_Start,"ax",%progbits
  20              		.align	2
  21              		.global	RGB_Start
  22              		.thumb
  23              		.thumb_func
  24              		.type	RGB_Start, %function
  25              	RGB_Start:
  26              	.LFB63:
  27              		.file 1 "RGB_driver.c"
   1:RGB_driver.c  **** /* ========================================
   2:RGB_driver.c  ****  *
   3:RGB_driver.c  ****  * Copyright YOUR COMPANY, THE YEAR
   4:RGB_driver.c  ****  * All Rights Reserved
   5:RGB_driver.c  ****  * UNPUBLISHED, LICENSED SOFTWARE.
   6:RGB_driver.c  ****  *
   7:RGB_driver.c  ****  * CONFIDENTIAL AND PROPRIETARY INFORMATION
   8:RGB_driver.c  ****  * WHICH IS THE PROPERTY OF your company.
   9:RGB_driver.c  ****  *
  10:RGB_driver.c  ****  * ========================================
  11:RGB_driver.c  **** */
  12:RGB_driver.c  **** 
  13:RGB_driver.c  **** #include "project.h"
  14:RGB_driver.c  **** #include "RGB_driver.h"
  15:RGB_driver.c  **** 
  16:RGB_driver.c  **** void RGB_Start(){
  28              		.loc 1 16 0
  29              		.cfi_startproc
  30              		@ args = 0, pretend = 0, frame = 0
  31              		@ frame_needed = 0, uses_anonymous_args = 0
  32 0000 08B5     		push	{r3, lr}
  33              		.cfi_def_cfa_offset 8
  34              		.cfi_offset 3, -8
  35              		.cfi_offset 14, -4
  17:RGB_driver.c  ****  
  18:RGB_driver.c  ****     PWM_RG_Start();
  36              		.loc 1 18 0
  37 0002 FFF7FEFF 		bl	PWM_RG_Start
  38              	.LVL0:
  19:RGB_driver.c  ****     PWM_B_INT_Start();
ARM GAS  C:\Users\Riccardo\AppData\Local\Temp\cchjS5fa.s 			page 2


  39              		.loc 1 19 0
  40 0006 FFF7FEFF 		bl	PWM_B_INT_Start
  41              	.LVL1:
  42 000a 08BD     		pop	{r3, pc}
  43              		.cfi_endproc
  44              	.LFE63:
  45              		.size	RGB_Start, .-RGB_Start
  46              		.section	.text.RGB_Stop,"ax",%progbits
  47              		.align	2
  48              		.global	RGB_Stop
  49              		.thumb
  50              		.thumb_func
  51              		.type	RGB_Stop, %function
  52              	RGB_Stop:
  53              	.LFB64:
  20:RGB_driver.c  ****    
  21:RGB_driver.c  **** }
  22:RGB_driver.c  **** 
  23:RGB_driver.c  **** void RGB_Stop(){
  54              		.loc 1 23 0
  55              		.cfi_startproc
  56              		@ args = 0, pretend = 0, frame = 0
  57              		@ frame_needed = 0, uses_anonymous_args = 0
  58 0000 08B5     		push	{r3, lr}
  59              		.cfi_def_cfa_offset 8
  60              		.cfi_offset 3, -8
  61              		.cfi_offset 14, -4
  24:RGB_driver.c  ****     
  25:RGB_driver.c  ****     PWM_RG_Stop();
  62              		.loc 1 25 0
  63 0002 FFF7FEFF 		bl	PWM_RG_Stop
  64              	.LVL2:
  26:RGB_driver.c  ****     PWM_B_INT_Stop();
  65              		.loc 1 26 0
  66 0006 FFF7FEFF 		bl	PWM_B_INT_Stop
  67              	.LVL3:
  68 000a 08BD     		pop	{r3, pc}
  69              		.cfi_endproc
  70              	.LFE64:
  71              		.size	RGB_Stop, .-RGB_Stop
  72              		.text
  73              	.Letext0:
  74              		.file 2 "c:\\program files (x86)\\cypress\\psoc creator\\4.3\\psoc creator\\import\\gnu\\arm\\5.4.
  75              		.file 3 "c:\\program files (x86)\\cypress\\psoc creator\\4.3\\psoc creator\\import\\gnu\\arm\\5.4.
  76              		.file 4 "Generated_Source\\PSoC5/PWM_RG.h"
  77              		.file 5 "Generated_Source\\PSoC5/PWM_B_INT.h"
  78              		.file 6 "Generated_Source\\PSoC5/core_cm3.h"